---
triple:          'arm64-apple-darwin'
binary-path:     hunt_valgrind
relocations:
  - { offsetInCU: 0x7665, offset: 0x7665, size: 0x8, addend: 0x0, symName: __ZNSt3__124__put_character_sequenceB8ue170006IcNS_11char_traitsIcEEEERNS_13basic_ostreamIT_T0_EES7_PKS4_m, symObjAddr: 0x6D80, symBinAddr: 0x10000A2C8, symSize: 0x1EC }
  - { offsetInCU: 0xBBB3, offset: 0xBBB3, size: 0x8, addend: 0x0, symName: __ZNSt3__1neB8ue170006IcNS_11char_traitsIcEENS_9allocatorIcEEEEbRKNS_12basic_stringIT_T0_T1_EEPKS6_, symObjAddr: 0x1438, symBinAddr: 0x100004980, symSize: 0x34 }
  - { offsetInCU: 0xBC0B, offset: 0xBC0B, size: 0x8, addend: 0x0, symName: __ZNSt3__1lsB8ue170006INS_11char_traitsIcEEEERNS_13basic_ostreamIcT_EES6_c, symObjAddr: 0x146C, symBinAddr: 0x1000049B4, symSize: 0x34 }
  - { offsetInCU: 0xBC51, offset: 0xBC51, size: 0x8, addend: 0x0, symName: __ZNSt3__1lsB8ue170006INS_11char_traitsIcEEEERNS_13basic_ostreamIcT_EES6_PKc, symObjAddr: 0x14A0, symBinAddr: 0x1000049E8, symSize: 0x48 }
  - { offsetInCU: 0xBC97, offset: 0xBC97, size: 0x8, addend: 0x0, symName: __ZNSt3__1lsB8ue170006IcNS_11char_traitsIcEENS_9allocatorIcEEEERNS_13basic_ostreamIT_T0_EES9_RKNS_12basic_stringIS6_S7_T1_EE, symObjAddr: 0x14E8, symBinAddr: 0x100004A30, symSize: 0x4C }
  - { offsetInCU: 0xBCEF, offset: 0xBCEF, size: 0x8, addend: 0x0, symName: __ZNSt3__1eqB8ue170006IcNS_11char_traitsIcEENS_9allocatorIcEEEEbRKNS_12basic_stringIT_T0_T1_EEPKS6_, symObjAddr: 0x1534, symBinAddr: 0x100004A7C, symSize: 0xAC }
  - { offsetInCU: 0xBD56, offset: 0xBD56, size: 0x8, addend: 0x0, symName: __ZNSt3__1rsB8ue170006IcNS_11char_traitsIcEEEERNS_13basic_istreamIT_T0_EES7_RS4_, symObjAddr: 0x1638, symBinAddr: 0x100004B80, symSize: 0x190 }
  - { offsetInCU: 0xBDD8, offset: 0xBDD8, size: 0x8, addend: 0x0, symName: __ZNSt3__17getlineB8ue170006IcNS_11char_traitsIcEENS_9allocatorIcEEEERNS_13basic_istreamIT_T0_EES9_RNS_12basic_stringIS6_S7_T1_EE, symObjAddr: 0x17F4, symBinAddr: 0x100004D3C, symSize: 0x5C }
  - { offsetInCU: 0xBF04, offset: 0xBF04, size: 0x8, addend: 0x0, symName: __ZNSt3__1neB8ue170006IPcEEbRKNS_11__wrap_iterIT_EES6_, symObjAddr: 0x1F3C, symBinAddr: 0x100005484, symSize: 0x34 }
  - { offsetInCU: 0xBF47, offset: 0xBF47, size: 0x8, addend: 0x0, symName: __ZNSt3__19make_pairB8ue170006ImRmEENS_4pairINS_18__unwrap_ref_decayIT_E4typeENS3_IT0_E4typeEEEOS4_OS7_, symObjAddr: 0x3B14, symBinAddr: 0x10000705C, symSize: 0x38 }
  - { offsetInCU: 0xBF96, offset: 0xBF96, size: 0x8, addend: 0x0, symName: __ZNSt3__19make_pairB8ue170006IRmmEENS_4pairINS_18__unwrap_ref_decayIT_E4typeENS3_IT0_E4typeEEEOS4_OS7_, symObjAddr: 0x46B4, symBinAddr: 0x100007BFC, symSize: 0x38 }
  - { offsetInCU: 0xBFE5, offset: 0xBFE5, size: 0x8, addend: 0x0, symName: __ZNSt3__19make_pairB8ue170006IRmS1_EENS_4pairINS_18__unwrap_ref_decayIT_E4typeENS3_IT0_E4typeEEEOS4_OS7_, symObjAddr: 0x4728, symBinAddr: 0x100007C70, symSize: 0x38 }
  - { offsetInCU: 0xC034, offset: 0xC034, size: 0x8, addend: 0x0, symName: __ZNSt3__112__to_addressB8ue170006INS_4pairImmEEEEPT_S4_, symObjAddr: 0x5500, symBinAddr: 0x100008A48, symSize: 0x14 }
  - { offsetInCU: 0xC069, offset: 0xC069, size: 0x8, addend: 0x0, symName: __ZNSt3__1neB8ue170006ERKNS_16__deque_iteratorINS_4pairImmEEPS2_RS2_PS3_lLl256EEES8_, symObjAddr: 0x5C24, symBinAddr: 0x10000916C, symSize: 0x34 }
  - { offsetInCU: 0xC0A6, offset: 0xC0A6, size: 0x8, addend: 0x0, symName: __ZNSt3__1eqB8ue170006ERKNS_16__deque_iteratorINS_4pairImmEEPS2_RS2_PS3_lLl256EEES8_, symObjAddr: 0x5E08, symBinAddr: 0x100009350, symSize: 0x30 }
  - { offsetInCU: 0xC0E3, offset: 0xC0E3, size: 0x8, addend: 0x0, symName: __ZNSt3__119__libcpp_deallocateB8ue170006EPvmm, symObjAddr: 0x6000, symBinAddr: 0x100009548, symSize: 0x60 }
  - { offsetInCU: 0xC148, offset: 0xC148, size: 0x8, addend: 0x0, symName: __ZNSt3__124__is_overaligned_for_newB8ue170006Em, symObjAddr: 0x6060, symBinAddr: 0x1000095A8, symSize: 0x20 }
  - { offsetInCU: 0xC176, offset: 0xC176, size: 0x8, addend: 0x0, symName: __ZNSt3__127__do_deallocate_handle_sizeB8ue170006IJSt11align_val_tEEEvPvmDpT_, symObjAddr: 0x6080, symBinAddr: 0x1000095C8, symSize: 0x30 }
  - { offsetInCU: 0xC1C9, offset: 0xC1C9, size: 0x8, addend: 0x0, symName: __ZNSt3__127__do_deallocate_handle_sizeB8ue170006IJEEEvPvmDpT_, symObjAddr: 0x60B0, symBinAddr: 0x1000095F8, symSize: 0x28 }
  - { offsetInCU: 0xC207, offset: 0xC207, size: 0x8, addend: 0x0, symName: __ZNSt3__124__libcpp_operator_deleteB8ue170006IJPvSt11align_val_tEEEvDpT_, symObjAddr: 0x60D8, symBinAddr: 0x100009620, symSize: 0x2C }
  - { offsetInCU: 0xC250, offset: 0xC250, size: 0x8, addend: 0x0, symName: __ZNSt3__124__libcpp_operator_deleteB8ue170006IJPvEEEvDpT_, symObjAddr: 0x6104, symBinAddr: 0x10000964C, symSize: 0x24 }
  - { offsetInCU: 0xC285, offset: 0xC285, size: 0x8, addend: 0x0, symName: __ZNSt3__112__to_addressB8ue170006IPNS_4pairImmEEEEPT_S5_, symObjAddr: 0x6388, symBinAddr: 0x1000098D0, symSize: 0x14 }
  - { offsetInCU: 0xC2BA, offset: 0xC2BA, size: 0x8, addend: 0x0, symName: __ZNSt3__112__to_addressB8ue170006INS_6vectorI10CoordinateNS_9allocatorIS2_EEEEEEPT_S7_, symObjAddr: 0x6898, symBinAddr: 0x100009DE0, symSize: 0x14 }
  - { offsetInCU: 0xC2EF, offset: 0xC2EF, size: 0x8, addend: 0x0, symName: __ZNSt3__1eqB8ue170006IPcEEbRKNS_11__wrap_iterIT_EES6_, symObjAddr: 0x6AF4, symBinAddr: 0x10000A03C, symSize: 0x48 }
  - { offsetInCU: 0xC332, offset: 0xC332, size: 0x8, addend: 0x0, symName: __ZNSt3__118__constexpr_strlenB8ue170006EPKc, symObjAddr: 0x6D5C, symBinAddr: 0x10000A2A4, symSize: 0x24 }
  - { offsetInCU: 0xC35E, offset: 0xC35E, size: 0x8, addend: 0x0, symName: __ZNSt3__116__pad_and_outputB8ue170006IcNS_11char_traitsIcEEEENS_19ostreambuf_iteratorIT_T0_EES6_PKS4_S8_S8_RNS_8ios_baseES4_, symObjAddr: 0x6F88, symBinAddr: 0x10000A4D0, symSize: 0x240 }
  - { offsetInCU: 0xC42D, offset: 0xC42D, size: 0x8, addend: 0x0, symName: __ZNSt3__112__to_addressB8ue170006IcEEPT_S2_, symObjAddr: 0x73F8, symBinAddr: 0x10000A940, symSize: 0x14 }
  - { offsetInCU: 0xC495, offset: 0xC495, size: 0x8, addend: 0x0, symName: __ZNSt3__19use_facetB8ue170006INS_5ctypeIcEEEERKT_RKNS_6localeE, symObjAddr: 0x76B0, symBinAddr: 0x10000ABF8, symSize: 0x2C }
  - { offsetInCU: 0xC962, offset: 0xC962, size: 0x8, addend: 0x0, symName: __ZNSt3__112__to_addressB8ue170006IKcEEPT_S3_, symObjAddr: 0x77C4, symBinAddr: 0x10000AD0C, symSize: 0x14 }
  - { offsetInCU: 0xCF55, offset: 0xCF55, size: 0x8, addend: 0x0, symName: __ZNSt3__17getlineB8ue170006IcNS_11char_traitsIcEENS_9allocatorIcEEEERNS_13basic_istreamIT_T0_EES9_RNS_12basic_stringIS6_S7_T1_EES6_, symObjAddr: 0x7B24, symBinAddr: 0x10000B06C, symSize: 0x234 }
  - { offsetInCU: 0xD1FF, offset: 0xD1FF, size: 0x8, addend: 0x0, symName: __ZNSt3__122__make_exception_guardB8ue170006INS_6vectorI10CoordinateNS_9allocatorIS2_EEE16__destroy_vectorEEENS_28__exception_guard_exceptionsIT_EES8_, symObjAddr: 0x8140, symBinAddr: 0x10000B688, symSize: 0x40 }
  - { offsetInCU: 0xD234, offset: 0xD234, size: 0x8, addend: 0x0, symName: __ZNSt3__119__allocate_at_leastB8ue170006INS_9allocatorI10CoordinateEEEENS_19__allocation_resultINS_16allocator_traitsIT_E7pointerEEERS6_m, symObjAddr: 0x853C, symBinAddr: 0x10000BA84, symSize: 0x40 }
  - { offsetInCU: 0xD277, offset: 0xD277, size: 0x8, addend: 0x0, symName: __ZNSt3__13minB8ue170006ImEERKT_S3_S3_, symObjAddr: 0x8694, symBinAddr: 0x10000BBDC, symSize: 0x2C }
  - { offsetInCU: 0xD4A4, offset: 0xD4A4, size: 0x8, addend: 0x0, symName: __ZNSt3__13minB8ue170006ImNS_6__lessIvvEEEERKT_S5_S5_T0_, symObjAddr: 0x8720, symBinAddr: 0x10000BC68, symSize: 0x54 }
  - { offsetInCU: 0xD543, offset: 0xD543, size: 0x8, addend: 0x0, symName: __ZNSt3__120__throw_length_errorB8ue170006EPKc, symObjAddr: 0x87FC, symBinAddr: 0x10000BD44, symSize: 0x64 }
  - { offsetInCU: 0xD56D, offset: 0xD56D, size: 0x8, addend: 0x0, symName: __ZNSt3__117__libcpp_allocateB8ue170006Emm, symObjAddr: 0x8970, symBinAddr: 0x10000BEB8, symSize: 0x60 }
  - { offsetInCU: 0xD5C7, offset: 0xD5C7, size: 0x8, addend: 0x0, symName: __ZNSt3__121__libcpp_operator_newB8ue170006IJmSt11align_val_tEEEPvDpT_, symObjAddr: 0x89D0, symBinAddr: 0x10000BF18, symSize: 0x2C }
  - { offsetInCU: 0xD614, offset: 0xD614, size: 0x8, addend: 0x0, symName: __ZNSt3__121__libcpp_operator_newB8ue170006IJmEEEPvDpT_, symObjAddr: 0x89FC, symBinAddr: 0x10000BF44, symSize: 0x24 }
  - { offsetInCU: 0xD64D, offset: 0xD64D, size: 0x8, addend: 0x0, symName: __ZNSt3__112__to_addressB8ue170006I10CoordinateEEPT_S3_, symObjAddr: 0x8B18, symBinAddr: 0x10000C060, symSize: 0x14 }
  - { offsetInCU: 0xD682, offset: 0xD682, size: 0x8, addend: 0x0, symName: __ZNSt3__130__uninitialized_allocator_copyB8ue170006INS_9allocatorI10CoordinateEEPS2_S4_S4_EET2_RT_T0_T1_S5_, symObjAddr: 0x9998, symBinAddr: 0x10000CEE0, symSize: 0x80 }
  - { offsetInCU: 0xD71F, offset: 0xD71F, size: 0x8, addend: 0x0, symName: __ZNSt3__114__unwrap_rangeB8ue170006IP10CoordinateS2_EENS_4pairIT0_S4_EET_S6_, symObjAddr: 0x9A18, symBinAddr: 0x10000CF60, symSize: 0x60 }
  - { offsetInCU: 0xD76B, offset: 0xD76B, size: 0x8, addend: 0x0, symName: __ZNSt3__135__uninitialized_allocator_copy_implB8ue170006INS_9allocatorI10CoordinateEES2_S2_S2_LPv0EEEPT2_RT_PT0_SA_S6_, symObjAddr: 0x9A78, symBinAddr: 0x10000CFC0, symSize: 0x38 }
  - { offsetInCU: 0xD7EC, offset: 0xD7EC, size: 0x8, addend: 0x0, symName: __ZNSt3__113__unwrap_iterB8ue170006IP10CoordinateNS_18__unwrap_iter_implIS2_Lb1EEELi0EEEDTclsrT0_8__unwrapclsr3stdE7declvalIT_EEEES6_, symObjAddr: 0x9AB0, symBinAddr: 0x10000CFF8, symSize: 0x24 }
  - { offsetInCU: 0xD830, offset: 0xD830, size: 0x8, addend: 0x0, symName: __ZNSt3__113__rewrap_iterB8ue170006IP10CoordinateS2_NS_18__unwrap_iter_implIS2_Lb1EEEEET_S5_T0_, symObjAddr: 0x9AD4, symBinAddr: 0x10000D01C, symSize: 0x3C }
  - { offsetInCU: 0xD885, offset: 0xD885, size: 0x8, addend: 0x0, symName: __ZNSt3__19make_pairB8ue170006IP10CoordinateS2_EENS_4pairINS_18__unwrap_ref_decayIT_E4typeENS4_IT0_E4typeEEEOS5_OS8_, symObjAddr: 0x9B10, symBinAddr: 0x10000D058, symSize: 0x38 }
  - { offsetInCU: 0xD9D7, offset: 0xD9D7, size: 0x8, addend: 0x0, symName: __ZNSt3__14copyB8ue170006IP10CoordinateS2_EET0_T_S4_S3_, symObjAddr: 0x9BB8, symBinAddr: 0x10000D100, symSize: 0x40 }
  - { offsetInCU: 0xDA31, offset: 0xDA31, size: 0x8, addend: 0x0, symName: __ZNSt3__16__copyB8ue170006INS_17_ClassicAlgPolicyEP10CoordinateS3_S3_EENS_4pairIT0_T2_EES5_T1_S6_, symObjAddr: 0x9BF8, symBinAddr: 0x10000D140, symSize: 0x44 }
  - { offsetInCU: 0xDA9D, offset: 0xDA9D, size: 0x8, addend: 0x0, symName: __ZNSt3__123__dispatch_copy_or_moveB8ue170006INS_17_ClassicAlgPolicyENS_11__copy_loopIS1_EENS_14__copy_trivialEP10CoordinateS6_S6_EENS_4pairIT2_T4_EES8_T3_S9_, symObjAddr: 0x9C3C, symBinAddr: 0x10000D184, symSize: 0x44 }
  - { offsetInCU: 0xDB1B, offset: 0xDB1B, size: 0x8, addend: 0x0, symName: __ZNSt3__121__unwrap_and_dispatchB8ue170006INS_10__overloadINS_11__copy_loopINS_17_ClassicAlgPolicyEEENS_14__copy_trivialEEEP10CoordinateS8_S8_Li0EEENS_4pairIT0_T2_EESA_T1_SB_, symObjAddr: 0x9C80, symBinAddr: 0x10000D1C8, symSize: 0xB4 }
  - { offsetInCU: 0xDBEF, offset: 0xDBEF, size: 0x8, addend: 0x0, symName: __ZNSt3__114__rewrap_rangeB8ue170006IP10CoordinateS2_EET_S3_T0_, symObjAddr: 0x9D7C, symBinAddr: 0x10000D2C4, symSize: 0x2C }
  - { offsetInCU: 0xDC3B, offset: 0xDC3B, size: 0x8, addend: 0x0, symName: __ZNSt3__119__copy_trivial_implB8ue170006I10CoordinateS1_EENS_4pairIPT_PT0_EES4_S4_S6_, symObjAddr: 0x9DA8, symBinAddr: 0x10000D2F0, symSize: 0x88 }
  - { offsetInCU: 0xDCA3, offset: 0xDCA3, size: 0x8, addend: 0x0, symName: __ZNSt3__119__constexpr_memmoveB8ue170006I10CoordinateS1_Li0EEEPT_S3_PT0_NS_15__element_countE, symObjAddr: 0x9E30, symBinAddr: 0x10000D378, symSize: 0x68 }
  - { offsetInCU: 0xDD11, offset: 0xDD11, size: 0x8, addend: 0x0, symName: __ZNSt3__19make_pairB8ue170006IRP10CoordinateS2_EENS_4pairINS_18__unwrap_ref_decayIT_E4typeENS5_IT0_E4typeEEEOS6_OS9_, symObjAddr: 0x9E98, symBinAddr: 0x10000D3E0, symSize: 0x38 }
  - { offsetInCU: 0xDDB3, offset: 0xDDB3, size: 0x8, addend: 0x0, symName: __ZNSt3__13maxB8ue170006ImEERKT_S3_S3_, symObjAddr: 0xA058, symBinAddr: 0x10000D5A0, symSize: 0x2C }
  - { offsetInCU: 0xDDF6, offset: 0xDDF6, size: 0x8, addend: 0x0, symName: __ZNSt3__13maxB8ue170006ImNS_6__lessIvvEEEERKT_S5_S5_T0_, symObjAddr: 0xA120, symBinAddr: 0x10000D668, symSize: 0x54 }
  - { offsetInCU: 0xDE50, offset: 0xDE50, size: 0x8, addend: 0x0, symName: __ZNSt3__119__allocate_at_leastB8ue170006INS_9allocatorINS_6vectorI10CoordinateNS1_IS3_EEEEEEEENS_19__allocation_resultINS_16allocator_traitsIT_E7pointerEEERS9_m, symObjAddr: 0xA290, symBinAddr: 0x10000D7D8, symSize: 0x40 }
  - { offsetInCU: 0xDE93, offset: 0xDE93, size: 0x8, addend: 0x0, symName: __ZNSt3__142__uninitialized_allocator_move_if_noexceptB8ue170006INS_9allocatorINS_6vectorI10CoordinateNS1_IS3_EEEEEENS_16reverse_iteratorIPS5_EES9_S9_EET2_RT_T0_T1_SA_, symObjAddr: 0xA51C, symBinAddr: 0x10000DA64, symSize: 0x12C }
  - { offsetInCU: 0xDF33, offset: 0xDF33, size: 0x8, addend: 0x0, symName: __ZNSt3__14swapB8ue170006IPNS_6vectorI10CoordinateNS_9allocatorIS2_EEEEEENS_9enable_ifIXaasr21is_move_constructibleIT_EE5valuesr18is_move_assignableIS8_EE5valueEvE4typeERS8_SB_, symObjAddr: 0xA694, symBinAddr: 0x10000DBDC, symSize: 0x3C }
  - { offsetInCU: 0xDF84, offset: 0xDF84, size: 0x8, addend: 0x0, symName: __ZNSt3__122__make_exception_guardB8ue170006INS_29_AllocatorDestroyRangeReverseINS_9allocatorINS_6vectorI10CoordinateNS2_IS4_EEEEEENS_16reverse_iteratorIPS6_EEEEEENS_28__exception_guard_exceptionsIT_EESD_, symObjAddr: 0xA798, symBinAddr: 0x10000DCE0, symSize: 0x4C }
  - { offsetInCU: 0xDFBA, offset: 0xDFBA, size: 0x8, addend: 0x0, symName: __ZNSt3__1neB8ue170006IPNS_6vectorI10CoordinateNS_9allocatorIS2_EEEES6_EEbRKNS_16reverse_iteratorIT_EERKNS7_IT0_EE, symObjAddr: 0xA828, symBinAddr: 0x10000DD70, symSize: 0x48 }
  - { offsetInCU: 0xE006, offset: 0xE006, size: 0x8, addend: 0x0, symName: __ZNSt3__112__to_addressB8ue170006INS_16reverse_iteratorIPNS_6vectorI10CoordinateNS_9allocatorIS3_EEEEEEvEEu7__decayIDTclsr19__to_address_helperIT_EE6__callclsr3stdE7declvalIRKS9_EEEEESB_, symObjAddr: 0xA8A4, symBinAddr: 0x10000DDEC, symSize: 0x24 }
  - { offsetInCU: 0xE065, offset: 0xE065, size: 0x8, addend: 0x0, symName: __ZNSt3__119__allocator_destroyB8ue170006INS_9allocatorINS_6vectorI10CoordinateNS1_IS3_EEEEEENS_16reverse_iteratorINS7_IPS5_EEEESA_EEvRT_T0_T1_, symObjAddr: 0xAC7C, symBinAddr: 0x10000E1C4, symSize: 0x70 }
  - { offsetInCU: 0xE0CA, offset: 0xE0CA, size: 0x8, addend: 0x0, symName: __ZNSt3__1neB8ue170006INS_16reverse_iteratorIPNS_6vectorI10CoordinateNS_9allocatorIS3_EEEEEES8_EEbRKNS1_IT_EERKNS1_IT0_EE, symObjAddr: 0xAD28, symBinAddr: 0x10000E270, symSize: 0x60 }
  - { offsetInCU: 0xE116, offset: 0xE116, size: 0x8, addend: 0x0, symName: __ZNSt3__112__to_addressB8ue170006INS_16reverse_iteratorINS1_IPNS_6vectorI10CoordinateNS_9allocatorIS3_EEEEEEEEvEEu7__decayIDTclsr19__to_address_helperIT_EE6__callclsr3stdE7declvalIRKSA_EEEEESC_, symObjAddr: 0xAD88, symBinAddr: 0x10000E2D0, symSize: 0x24 }
  - { offsetInCU: 0xE51A, offset: 0xE51A, size: 0x8, addend: 0x0, symName: __ZNSt3__14swapB8ue170006IPPNS_4pairImmEEEENS_9enable_ifIXaasr21is_move_constructibleIT_EE5valuesr18is_move_assignableIS6_EE5valueEvE4typeERS6_S9_, symObjAddr: 0xC3F4, symBinAddr: 0x10000F93C, symSize: 0x3C }
  - { offsetInCU: 0xE56B, offset: 0xE56B, size: 0x8, addend: 0x0, symName: __ZNSt3__14moveB8ue170006IPPNS_4pairImmEES4_EET0_T_S6_S5_, symObjAddr: 0xC4D8, symBinAddr: 0x10000FA20, symSize: 0x40 }
  - { offsetInCU: 0xE5E1, offset: 0xE5E1, size: 0x8, addend: 0x0, symName: __ZNSt3__16__moveB8ue170006INS_17_ClassicAlgPolicyEPPNS_4pairImmEES5_S5_EENS2_IT0_T2_EES6_T1_S7_, symObjAddr: 0xC5E0, symBinAddr: 0x10000FB28, symSize: 0x44 }
  - { offsetInCU: 0xE64D, offset: 0xE64D, size: 0x8, addend: 0x0, symName: __ZNSt3__123__dispatch_copy_or_moveB8ue170006INS_17_ClassicAlgPolicyENS_11__move_loopIS1_EENS_14__move_trivialEPPNS_4pairImmEES8_S8_EENS5_IT2_T4_EES9_T3_SA_, symObjAddr: 0xC624, symBinAddr: 0x10000FB6C, symSize: 0x44 }
  - { offsetInCU: 0xE6CB, offset: 0xE6CB, size: 0x8, addend: 0x0, symName: __ZNSt3__121__unwrap_and_dispatchB8ue170006INS_10__overloadINS_11__move_loopINS_17_ClassicAlgPolicyEEENS_14__move_trivialEEEPPNS_4pairImmEESA_SA_Li0EEENS7_IT0_T2_EESB_T1_SC_, symObjAddr: 0xC668, symBinAddr: 0x10000FBB0, symSize: 0xB4 }
  - { offsetInCU: 0xE759, offset: 0xE759, size: 0x8, addend: 0x0, symName: __ZNSt3__114__unwrap_rangeB8ue170006IPPNS_4pairImmEES4_EENS1_IT0_S5_EET_S7_, symObjAddr: 0xC71C, symBinAddr: 0x10000FC64, symSize: 0x60 }
  - { offsetInCU: 0xE91D, offset: 0xE91D, size: 0x8, addend: 0x0, symName: __ZNSt3__113__unwrap_iterB8ue170006IPPNS_4pairImmEENS_18__unwrap_iter_implIS4_Lb1EEELi0EEEDTclsrT0_8__unwrapclsr3stdE7declvalIT_EEEES8_, symObjAddr: 0xC7C4, symBinAddr: 0x10000FD0C, symSize: 0x24 }
  - { offsetInCU: 0xE961, offset: 0xE961, size: 0x8, addend: 0x0, symName: __ZNSt3__19make_pairB8ue170006IPPNS_4pairImmEES4_EENS1_INS_18__unwrap_ref_decayIT_E4typeENS5_IT0_E4typeEEEOS6_OS9_, symObjAddr: 0xC7E8, symBinAddr: 0x10000FD30, symSize: 0x38 }
  - { offsetInCU: 0xE9B0, offset: 0xE9B0, size: 0x8, addend: 0x0, symName: __ZNSt3__114__rewrap_rangeB8ue170006IPPNS_4pairImmEES4_EET_S5_T0_, symObjAddr: 0xC820, symBinAddr: 0x10000FD68, symSize: 0x2C }
  - { offsetInCU: 0xE9FC, offset: 0xE9FC, size: 0x8, addend: 0x0, symName: __ZNSt3__113__rewrap_iterB8ue170006IPPNS_4pairImmEES4_NS_18__unwrap_iter_implIS4_Lb1EEEEET_S7_T0_, symObjAddr: 0xC84C, symBinAddr: 0x10000FD94, symSize: 0x3C }
  - { offsetInCU: 0xEA51, offset: 0xEA51, size: 0x8, addend: 0x0, symName: __ZNSt3__119__copy_trivial_implB8ue170006IPNS_4pairImmEES3_EENS1_IPT_PT0_EES5_S5_S7_, symObjAddr: 0xC888, symBinAddr: 0x10000FDD0, symSize: 0x80 }
  - { offsetInCU: 0xEAB9, offset: 0xEAB9, size: 0x8, addend: 0x0, symName: __ZNSt3__119__constexpr_memmoveB8ue170006IPNS_4pairImmEES3_Li0EEEPT_S5_PT0_NS_15__element_countE, symObjAddr: 0xC908, symBinAddr: 0x10000FE50, symSize: 0x64 }
  - { offsetInCU: 0xEB27, offset: 0xEB27, size: 0x8, addend: 0x0, symName: __ZNSt3__19make_pairB8ue170006IRPPNS_4pairImmEES4_EENS1_INS_18__unwrap_ref_decayIT_E4typeENS6_IT0_E4typeEEEOS7_OSA_, symObjAddr: 0xC96C, symBinAddr: 0x10000FEB4, symSize: 0x38 }
  - { offsetInCU: 0xEBC9, offset: 0xEBC9, size: 0x8, addend: 0x0, symName: __ZNSt3__18distanceB8ue170006INS_13move_iteratorIPPNS_4pairImmEEEEEENS_15iterator_traitsIT_E15difference_typeES8_S8_, symObjAddr: 0xCBD4, symBinAddr: 0x10001011C, symSize: 0x3C }
  - { offsetInCU: 0xEC0C, offset: 0xEC0C, size: 0x8, addend: 0x0, symName: __ZNSt3__110__distanceB8ue170006INS_13move_iteratorIPPNS_4pairImmEEEEEENS_15iterator_traitsIT_E15difference_typeES8_S8_NS_26random_access_iterator_tagE, symObjAddr: 0xCDD8, symBinAddr: 0x100010320, symSize: 0x30 }
  - { offsetInCU: 0xEC59, offset: 0xEC59, size: 0x8, addend: 0x0, symName: __ZNSt3__1miB8ue170006IPPNS_4pairImmEES4_EEDTmicldtfp_4baseEcldtfp0_4baseEERKNS_13move_iteratorIT_EERKNS6_IT0_EE, symObjAddr: 0xCE08, symBinAddr: 0x100010350, symSize: 0x48 }
  - { offsetInCU: 0xECA8, offset: 0xECA8, size: 0x8, addend: 0x0, symName: __ZNSt3__113move_backwardB8ue170006IPPNS_4pairImmEES4_EET0_T_S6_S5_, symObjAddr: 0xCF40, symBinAddr: 0x100010488, symSize: 0x40 }
  - { offsetInCU: 0xED02, offset: 0xED02, size: 0x8, addend: 0x0, symName: __ZNSt3__115__move_backwardB8ue170006INS_17_ClassicAlgPolicyEPPNS_4pairImmEES5_S5_EENS2_IT0_T2_EES6_T1_S7_, symObjAddr: 0xCF80, symBinAddr: 0x1000104C8, symSize: 0x44 }
  - { offsetInCU: 0xED6E, offset: 0xED6E, size: 0x8, addend: 0x0, symName: __ZNSt3__123__dispatch_copy_or_moveB8ue170006INS_17_ClassicAlgPolicyENS_20__move_backward_loopIS1_EENS_23__move_backward_trivialEPPNS_4pairImmEES8_S8_EENS5_IT2_T4_EES9_T3_SA_, symObjAddr: 0xCFC4, symBinAddr: 0x10001050C, symSize: 0x44 }
  - { offsetInCU: 0xEDEC, offset: 0xEDEC, size: 0x8, addend: 0x0, symName: __ZNSt3__121__unwrap_and_dispatchB8ue170006INS_10__overloadINS_20__move_backward_loopINS_17_ClassicAlgPolicyEEENS_23__move_backward_trivialEEEPPNS_4pairImmEESA_SA_Li0EEENS7_IT0_T2_EESB_T1_SC_, symObjAddr: 0xD008, symBinAddr: 0x100010550, symSize: 0xB4 }
  - { offsetInCU: 0xEEC0, offset: 0xEEC0, size: 0x8, addend: 0x0, symName: __ZNSt3__128__copy_backward_trivial_implB8ue170006IPNS_4pairImmEES3_EENS1_IPT_PT0_EES5_S5_S7_, symObjAddr: 0xD104, symBinAddr: 0x10001064C, symSize: 0x90 }
  - { offsetInCU: 0xEF28, offset: 0xEF28, size: 0x8, addend: 0x0, symName: __ZNSt3__19make_pairB8ue170006IRPPNS_4pairImmEES5_EENS1_INS_18__unwrap_ref_decayIT_E4typeENS6_IT0_E4typeEEEOS7_OSA_, symObjAddr: 0xD194, symBinAddr: 0x1000106DC, symSize: 0x38 }
  - { offsetInCU: 0xEF77, offset: 0xEF77, size: 0x8, addend: 0x0, symName: __ZNSt3__119__allocate_at_leastB8ue170006INS_9allocatorIPNS_4pairImmEEEEEENS_19__allocation_resultINS_16allocator_traitsIT_E7pointerEEERS8_m, symObjAddr: 0xD34C, symBinAddr: 0x100010894, symSize: 0x40 }
  - { offsetInCU: 0xEFBA, offset: 0xEFBA, size: 0x8, addend: 0x0, symName: __ZNSt3__119__allocate_at_leastB8ue170006INS_9allocatorINS_4pairImmEEEEEENS_19__allocation_resultINS_16allocator_traitsIT_E7pointerEEERS7_m, symObjAddr: 0xE918, symBinAddr: 0x100011E60, symSize: 0x40 }
  - { offsetInCU: 0xEFFD, offset: 0xEFFD, size: 0x8, addend: 0x0, symName: __ZNSt3__142__uninitialized_allocator_move_if_noexceptB8ue170006INS_9allocatorINS_4pairImmEEEENS_16reverse_iteratorIPS3_EES7_S7_EET2_RT_T0_T1_S8_, symObjAddr: 0xEA74, symBinAddr: 0x100011FBC, symSize: 0x12C }
  - { offsetInCU: 0xF09D, offset: 0xF09D, size: 0x8, addend: 0x0, symName: __ZNSt3__14swapB8ue170006IPNS_4pairImmEEEENS_9enable_ifIXaasr21is_move_constructibleIT_EE5valuesr18is_move_assignableIS5_EE5valueEvE4typeERS5_S8_, symObjAddr: 0xEBEC, symBinAddr: 0x100012134, symSize: 0x3C }
  - { offsetInCU: 0xF0EE, offset: 0xF0EE, size: 0x8, addend: 0x0, symName: __ZNSt3__122__make_exception_guardB8ue170006INS_29_AllocatorDestroyRangeReverseINS_9allocatorINS_4pairImmEEEENS_16reverse_iteratorIPS4_EEEEEENS_28__exception_guard_exceptionsIT_EESB_, symObjAddr: 0xECD4, symBinAddr: 0x10001221C, symSize: 0x4C }
  - { offsetInCU: 0xF124, offset: 0xF124, size: 0x8, addend: 0x0, symName: __ZNSt3__1neB8ue170006IPNS_4pairImmEES3_EEbRKNS_16reverse_iteratorIT_EERKNS4_IT0_EE, symObjAddr: 0xED64, symBinAddr: 0x1000122AC, symSize: 0x48 }
  - { offsetInCU: 0xF170, offset: 0xF170, size: 0x8, addend: 0x0, symName: __ZNSt3__112__to_addressB8ue170006INS_16reverse_iteratorIPNS_4pairImmEEEEvEEu7__decayIDTclsr19__to_address_helperIT_EE6__callclsr3stdE7declvalIRKS6_EEEEES8_, symObjAddr: 0xEDAC, symBinAddr: 0x1000122F4, symSize: 0x24 }
  - { offsetInCU: 0xF1CF, offset: 0xF1CF, size: 0x8, addend: 0x0, symName: __ZNSt3__119__allocator_destroyB8ue170006INS_9allocatorINS_4pairImmEEEENS_16reverse_iteratorINS5_IPS3_EEEES8_EEvRT_T0_T1_, symObjAddr: 0xF05C, symBinAddr: 0x1000125A4, symSize: 0x70 }
  - { offsetInCU: 0xF234, offset: 0xF234, size: 0x8, addend: 0x0, symName: __ZNSt3__1neB8ue170006INS_16reverse_iteratorIPNS_4pairImmEEEES5_EEbRKNS1_IT_EERKNS1_IT0_EE, symObjAddr: 0xF108, symBinAddr: 0x100012650, symSize: 0x60 }
  - { offsetInCU: 0xF280, offset: 0xF280, size: 0x8, addend: 0x0, symName: __ZNSt3__112__to_addressB8ue170006INS_16reverse_iteratorINS1_IPNS_4pairImmEEEEEEvEEu7__decayIDTclsr19__to_address_helperIT_EE6__callclsr3stdE7declvalIRKS7_EEEEES9_, symObjAddr: 0xF168, symBinAddr: 0x1000126B0, symSize: 0x24 }
  - { offsetInCU: 0xF741, offset: 0xF741, size: 0x8, addend: 0x0, symName: __ZSt28__throw_bad_array_new_lengthB8ue170006v, symObjAddr: 0x893C, symBinAddr: 0x10000BE84, symSize: 0x34 }
  - { offsetInCU: 0x100E6, offset: 0x100E6, size: 0x8, addend: 0x0, symName: __ZNSt3__16vectorINS0_I10CoordinateNS_9allocatorIS1_EEEENS2_IS4_EEE26__swap_out_circular_bufferERNS_14__split_bufferIS4_RS5_EE, symObjAddr: 0x9458, symBinAddr: 0x10000C9A0, symSize: 0x110 }
  - { offsetInCU: 0x10318, offset: 0x10318, size: 0x8, addend: 0x0, symName: __ZNSt3__16vectorINS_4pairImmEENS_9allocatorIS2_EEE26__swap_out_circular_bufferERNS_14__split_bufferIS2_RS4_EE, symObjAddr: 0xE5F0, symBinAddr: 0x100011B38, symSize: 0x110 }
  - { offsetInCU: 0x12723, offset: 0x12723, size: 0x8, addend: 0x0, symName: _main, symObjAddr: 0x0, symBinAddr: 0x100003548, symSize: 0xA4 }
  - { offsetInCU: 0x12982, offset: 0x12982, size: 0x8, addend: 0x0, symName: __ZN12TreasureHuntC1Ev, symObjAddr: 0xA4, symBinAddr: 0x1000035EC, symSize: 0x2C }
  - { offsetInCU: 0x129AE, offset: 0x129AE, size: 0x8, addend: 0x0, symName: __ZN12TreasureHunt11get_optionsEiPPc, symObjAddr: 0xD0, symBinAddr: 0x100003618, symSize: 0x78C }
  - { offsetInCU: 0x12A7D, offset: 0x12A7D, size: 0x8, addend: 0x0, symName: __ZN12TreasureHunt9read_dataEv, symObjAddr: 0x93C, symBinAddr: 0x100003E84, symSize: 0x420 }
  - { offsetInCU: 0x12BC6, offset: 0x12BC6, size: 0x8, addend: 0x0, symName: __ZN12TreasureHunt4huntEv, symObjAddr: 0xD5C, symBinAddr: 0x1000042A4, symSize: 0x67C }
  - { offsetInCU: 0x12C6C, offset: 0x12C6C, size: 0x8, addend: 0x0, symName: __ZN12TreasureHuntD1Ev, symObjAddr: 0x13D8, symBinAddr: 0x100004920, symSize: 0x2C }
  - { offsetInCU: 0x12C9D, offset: 0x12C9D, size: 0x8, addend: 0x0, symName: __ZNSt3__112basic_stringIcNS_11char_traitsIcEENS_9allocatorIcEEEC1B8ue170006ILi0EEEPKc, symObjAddr: 0x1404, symBinAddr: 0x10000494C, symSize: 0x34 }
  - { offsetInCU: 0x12CDC, offset: 0x12CDC, size: 0x8, addend: 0x0, symName: __ZNSt3__112basic_stringIcNS_11char_traitsIcEENS_9allocatorIcEEEaSB8ue170006EPKc, symObjAddr: 0x15E0, symBinAddr: 0x100004B28, symSize: 0x2C }
  - { offsetInCU: 0x12D11, offset: 0x12D11, size: 0x8, addend: 0x0, symName: __ZNSt3__112basic_stringIcNS_11char_traitsIcEENS_9allocatorIcEEEC1B8ue170006Ev, symObjAddr: 0x160C, symBinAddr: 0x100004B54, symSize: 0x2C }
  - { offsetInCU: 0x12D3B, offset: 0x12D3B, size: 0x8, addend: 0x0, symName: __ZNKSt3__19basic_iosIcNS_11char_traitsIcEEEcvbB8ue170006Ev, symObjAddr: 0x17C8, symBinAddr: 0x100004D10, symSize: 0x2C }
  - { offsetInCU: 0x12D61, offset: 0x12D61, size: 0x8, addend: 0x0, symName: __ZN10CoordinateC1Ev, symObjAddr: 0x1850, symBinAddr: 0x100004D98, symSize: 0x2C }
  - { offsetInCU: 0x12D8B, offset: 0x12D8B, size: 0x8, addend: 0x0, symName: __ZNSt3__16vectorINS0_I10CoordinateNS_9allocatorIS1_EEEENS2_IS4_EEE6resizeEmRKS4_, symObjAddr: 0x187C, symBinAddr: 0x100004DC4, symSize: 0xA4 }
  - { offsetInCU: 0x12DE0, offset: 0x12DE0, size: 0x8, addend: 0x0, symName: __ZNSt3__16vectorI10CoordinateNS_9allocatorIS1_EEEC1EmRKS1_, symObjAddr: 0x1920, symBinAddr: 0x100004E68, symSize: 0x3C }
  - { offsetInCU: 0x12E2A, offset: 0x12E2A, size: 0x8, addend: 0x0, symName: __ZNSt3__16vectorI10CoordinateNS_9allocatorIS1_EEED1B8ue170006Ev, symObjAddr: 0x195C, symBinAddr: 0x100004EA4, symSize: 0x2C }
  - { offsetInCU: 0x12E6D, offset: 0x12E6D, size: 0x8, addend: 0x0, symName: __ZNSt3__14pairIiiEC1B8ue170006IRmS3_LPv0EEEOT_OT0_, symObjAddr: 0x1988, symBinAddr: 0x100004ED0, symSize: 0x3C }
  - { offsetInCU: 0x12ECB, offset: 0x12ECB, size: 0x8, addend: 0x0, symName: __ZN10CoordinateC1Eccb, symObjAddr: 0x19C4, symBinAddr: 0x100004F0C, symSize: 0x50 }
  - { offsetInCU: 0x12F1F, offset: 0x12F1F, size: 0x8, addend: 0x0, symName: __ZNSt3__16vectorINS0_I10CoordinateNS_9allocatorIS1_EEEENS2_IS4_EEEixB8ue170006Em, symObjAddr: 0x1A14, symBinAddr: 0x100004F5C, symSize: 0x2C }
  - { offsetInCU: 0x12F56, offset: 0x12F56, size: 0x8, addend: 0x0, symName: __ZNSt3__16vectorI10CoordinateNS_9allocatorIS1_EEEixB8ue170006Em, symObjAddr: 0x1A40, symBinAddr: 0x100004F88, symSize: 0x2C }
  - { offsetInCU: 0x12F8D, offset: 0x12F8D, size: 0x8, addend: 0x0, symName: __ZNSt3__14pairImmEaSB8ue170006IiiLPv0EEERS1_RKNS0_IT_T0_EE, symObjAddr: 0x1A6C, symBinAddr: 0x100004FB4, symSize: 0x30 }
  - { offsetInCU: 0x12FDA, offset: 0x12FDA, size: 0x8, addend: 0x0, symName: __ZNSt3__15dequeINS_4pairImmEENS_9allocatorIS2_EEE9push_backERKS2_, symObjAddr: 0x1A9C, symBinAddr: 0x100004FE4, symSize: 0xAC }
  - { offsetInCU: 0x13020, offset: 0x13020, size: 0x8, addend: 0x0, symName: __ZN10Coordinate13is_discoveredEv, symObjAddr: 0x1B48, symBinAddr: 0x100005090, symSize: 0x1C }
  - { offsetInCU: 0x13046, offset: 0x13046, size: 0x8, addend: 0x0, symName: __ZNSt3__14pairImmEC1B8ue170006IRmS3_LPv0EEEOT_OT0_, symObjAddr: 0x1B64, symBinAddr: 0x1000050AC, symSize: 0x3C }
  - { offsetInCU: 0x130A4, offset: 0x130A4, size: 0x8, addend: 0x0, symName: __ZNSt3__14pairImmEaSB8ue170006EOS1_, symObjAddr: 0x1BA0, symBinAddr: 0x1000050E8, symSize: 0x30 }
  - { offsetInCU: 0x130D9, offset: 0x130D9, size: 0x8, addend: 0x0, symName: __ZNKSt3__15dequeINS_4pairImmEENS_9allocatorIS2_EEE5emptyB8ue170006Ev, symObjAddr: 0x1BD0, symBinAddr: 0x100005118, symSize: 0x30 }
  - { offsetInCU: 0x130FF, offset: 0x130FF, size: 0x8, addend: 0x0, symName: __ZNSt3__15dequeINS_4pairImmEENS_9allocatorIS2_EEE4backEv, symObjAddr: 0x1C00, symBinAddr: 0x100005148, symSize: 0x68 }
  - { offsetInCU: 0x13136, offset: 0x13136, size: 0x8, addend: 0x0, symName: __ZNSt3__14pairImmEaSB8ue170006ERKS1_, symObjAddr: 0x1C68, symBinAddr: 0x1000051B0, symSize: 0x30 }
  - { offsetInCU: 0x1316B, offset: 0x1316B, size: 0x8, addend: 0x0, symName: __ZNSt3__15dequeINS_4pairImmEENS_9allocatorIS2_EEE8pop_backEv, symObjAddr: 0x1C98, symBinAddr: 0x1000051E0, symSize: 0xE0 }
  - { offsetInCU: 0x131CF, offset: 0x131CF, size: 0x8, addend: 0x0, symName: __ZNSt3__15dequeINS_4pairImmEENS_9allocatorIS2_EEE5frontEv, symObjAddr: 0x1D78, symBinAddr: 0x1000052C0, symSize: 0x50 }
  - { offsetInCU: 0x131F7, offset: 0x131F7, size: 0x8, addend: 0x0, symName: __ZNSt3__15dequeINS_4pairImmEENS_9allocatorIS2_EEE9pop_frontEv, symObjAddr: 0x1DC8, symBinAddr: 0x100005310, symSize: 0xD4 }
  - { offsetInCU: 0x1324C, offset: 0x1324C, size: 0x8, addend: 0x0, symName: __ZNSt3__112basic_stringIcNS_11char_traitsIcEENS_9allocatorIcEEE5beginB8ue170006Ev, symObjAddr: 0x1E9C, symBinAddr: 0x1000053E4, symSize: 0x4C }
  - { offsetInCU: 0x13272, offset: 0x13272, size: 0x8, addend: 0x0, symName: __ZNSt3__112basic_stringIcNS_11char_traitsIcEENS_9allocatorIcEEE3endB8ue170006Ev, symObjAddr: 0x1EE8, symBinAddr: 0x100005430, symSize: 0x54 }
  - { offsetInCU: 0x13298, offset: 0x13298, size: 0x8, addend: 0x0, symName: __ZNKSt3__111__wrap_iterIPcEdeB8ue170006Ev, symObjAddr: 0x1F70, symBinAddr: 0x1000054B8, symSize: 0x18 }
  - { offsetInCU: 0x132BE, offset: 0x132BE, size: 0x8, addend: 0x0, symName: __ZNK10Coordinate8get_typeEv, symObjAddr: 0x1F88, symBinAddr: 0x1000054D0, symSize: 0x18 }
  - { offsetInCU: 0x132E4, offset: 0x132E4, size: 0x8, addend: 0x0, symName: __ZNK10Coordinate17get_if_discoveredEv, symObjAddr: 0x1FA0, symBinAddr: 0x1000054E8, symSize: 0x1C }
  - { offsetInCU: 0x1330A, offset: 0x1330A, size: 0x8, addend: 0x0, symName: __ZN12TreasureHunt10sail_northEv, symObjAddr: 0x1FBC, symBinAddr: 0x100005504, symSize: 0x2C4 }
  - { offsetInCU: 0x1336D, offset: 0x1336D, size: 0x8, addend: 0x0, symName: __ZN12TreasureHunt10sail_southEv, symObjAddr: 0x2280, symBinAddr: 0x1000057C8, symSize: 0x2C4 }
  - { offsetInCU: 0x133D0, offset: 0x133D0, size: 0x8, addend: 0x0, symName: __ZN12TreasureHunt9sail_eastEv, symObjAddr: 0x2544, symBinAddr: 0x100005A8C, symSize: 0x2C4 }
  - { offsetInCU: 0x13433, offset: 0x13433, size: 0x8, addend: 0x0, symName: __ZN12TreasureHunt9sail_westEv, symObjAddr: 0x2808, symBinAddr: 0x100005D50, symSize: 0x2C4 }
  - { offsetInCU: 0x13496, offset: 0x13496, size: 0x8, addend: 0x0, symName: __ZNSt3__111__wrap_iterIPcEppB8ue170006Ev, symObjAddr: 0x2ACC, symBinAddr: 0x100006014, symSize: 0x20 }
  - { offsetInCU: 0x134BC, offset: 0x134BC, size: 0x8, addend: 0x0, symName: __ZN12TreasureHunt10count_pathEv, symObjAddr: 0x2AEC, symBinAddr: 0x100006034, symSize: 0x224 }
  - { offsetInCU: 0x13502, offset: 0x13502, size: 0x8, addend: 0x0, symName: __ZN12TreasureHunt11print_statsEv, symObjAddr: 0x2D10, symBinAddr: 0x100006258, symSize: 0x170 }
  - { offsetInCU: 0x1352A, offset: 0x1352A, size: 0x8, addend: 0x0, symName: __ZN12TreasureHunt13find_path_mapEv, symObjAddr: 0x2E80, symBinAddr: 0x1000063C8, symSize: 0x5B8 }
  - { offsetInCU: 0x135AA, offset: 0x135AA, size: 0x8, addend: 0x0, symName: __ZN12TreasureHunt14find_path_listEv, symObjAddr: 0x3438, symBinAddr: 0x100006980, symSize: 0x564 }
  - { offsetInCU: 0x1364C, offset: 0x1364C, size: 0x8, addend: 0x0, symName: __ZN10Coordinate13set_directionEc, symObjAddr: 0x399C, symBinAddr: 0x100006EE4, symSize: 0xCC }
  - { offsetInCU: 0x13680, offset: 0x13680, size: 0x8, addend: 0x0, symName: __ZNSt3__15dequeINS_4pairImmEENS_9allocatorIS2_EEE9push_backEOS2_, symObjAddr: 0x3A68, symBinAddr: 0x100006FB0, symSize: 0xAC }
  - { offsetInCU: 0x136CB, offset: 0x136CB, size: 0x8, addend: 0x0, symName: __ZNSt3__14pairImmEC1B8ue170006ImRmLPv0EEEOT_OT0_, symObjAddr: 0x3B4C, symBinAddr: 0x100007094, symSize: 0x3C }
  - { offsetInCU: 0x13729, offset: 0x13729, size: 0x8, addend: 0x0, symName: __ZN12TreasureHunt9land_huntENSt3__14pairImmEE, symObjAddr: 0x3B88, symBinAddr: 0x1000070D0, symSize: 0xB2C }
  - { offsetInCU: 0x137E3, offset: 0x137E3, size: 0x8, addend: 0x0, symName: __ZNSt3__14pairImmEC1B8ue170006IRmmLPv0EEEOT_OT0_, symObjAddr: 0x46EC, symBinAddr: 0x100007C34, symSize: 0x3C }
  - { offsetInCU: 0x13841, offset: 0x13841, size: 0x8, addend: 0x0, symName: __ZN10Coordinate11change_typeEc, symObjAddr: 0x4760, symBinAddr: 0x100007CA8, symSize: 0xCC }
  - { offsetInCU: 0x13875, offset: 0x13875, size: 0x8, addend: 0x0, symName: __ZNSt3__14pairImmEC1B8ue170006ILb1ELPv0EEEv, symObjAddr: 0x482C, symBinAddr: 0x100007D74, symSize: 0x2C }
  - { offsetInCU: 0x138AF, offset: 0x138AF, size: 0x8, addend: 0x0, symName: __ZNK10Coordinate13get_directionEv, symObjAddr: 0x4858, symBinAddr: 0x100007DA0, symSize: 0x18 }
  - { offsetInCU: 0x138D5, offset: 0x138D5, size: 0x8, addend: 0x0, symName: __ZNSt3__16vectorINS_4pairImmEENS_9allocatorIS2_EEEC1B8ue170006Ev, symObjAddr: 0x4870, symBinAddr: 0x100007DB8, symSize: 0x2C }
  - { offsetInCU: 0x138FF, offset: 0x138FF, size: 0x8, addend: 0x0, symName: __ZNSt3__16vectorINS_4pairImmEENS_9allocatorIS2_EEE9push_backB8ue170006ERKS2_, symObjAddr: 0x489C, symBinAddr: 0x100007DE4, symSize: 0x6C }
  - { offsetInCU: 0x13936, offset: 0x13936, size: 0x8, addend: 0x0, symName: __ZNKSt3__16vectorINS_4pairImmEENS_9allocatorIS2_EEE4sizeB8ue170006Ev, symObjAddr: 0x4908, symBinAddr: 0x100007E50, symSize: 0x28 }
  - { offsetInCU: 0x1395C, offset: 0x1395C, size: 0x8, addend: 0x0, symName: __ZNSt3__16vectorINS_4pairImmEENS_9allocatorIS2_EEEixB8ue170006Em, symObjAddr: 0x4930, symBinAddr: 0x100007E78, symSize: 0x24 }
  - { offsetInCU: 0x13993, offset: 0x13993, size: 0x8, addend: 0x0, symName: __ZNSt3__16vectorINS_4pairImmEENS_9allocatorIS2_EEED1B8ue170006Ev, symObjAddr: 0x4954, symBinAddr: 0x100007E9C, symSize: 0x2C }
  - { offsetInCU: 0x139BD, offset: 0x139BD, size: 0x8, addend: 0x0, symName: __ZN12TreasureHuntC2Ev, symObjAddr: 0x4980, symBinAddr: 0x100007EC8, symSize: 0x158 }
  - { offsetInCU: 0x139E9, offset: 0x139E9, size: 0x8, addend: 0x0, symName: __ZNSt3__15dequeINS_4pairImmEENS_9allocatorIS2_EEEC1B8ue170006Ev, symObjAddr: 0x4AD8, symBinAddr: 0x100008020, symSize: 0x2C }
  - { offsetInCU: 0x13A13, offset: 0x13A13, size: 0x8, addend: 0x0, symName: __ZNSt3__16vectorINS0_I10CoordinateNS_9allocatorIS1_EEEENS2_IS4_EEEC1B8ue170006Ev, symObjAddr: 0x4B04, symBinAddr: 0x10000804C, symSize: 0x2C }
  - { offsetInCU: 0x13A3D, offset: 0x13A3D, size: 0x8, addend: 0x0, symName: __ZNSt3__15dequeINS_4pairImmEENS_9allocatorIS2_EEED1B8ue170006Ev, symObjAddr: 0x4B30, symBinAddr: 0x100008078, symSize: 0x2C }
  - { offsetInCU: 0x13A67, offset: 0x13A67, size: 0x8, addend: 0x0, symName: __ZNSt3__15dequeINS_4pairImmEENS_9allocatorIS2_EEEC2B8ue170006Ev, symObjAddr: 0x4B5C, symBinAddr: 0x1000080A4, symSize: 0x5C }
  - { offsetInCU: 0x13A91, offset: 0x13A91, size: 0x8, addend: 0x0, symName: __ZNSt3__114__split_bufferIPNS_4pairImmEENS_9allocatorIS3_EEEC1B8ue170006Ev, symObjAddr: 0x4BB8, symBinAddr: 0x100008100, symSize: 0x2C }
  - { offsetInCU: 0x13AC5, offset: 0x13AC5, size: 0x8, addend: 0x0, symName: __ZNSt3__117__compressed_pairImNS_9allocatorINS_4pairImmEEEEEC1B8ue170006IiNS_18__default_init_tagEEEOT_OT0_, symObjAddr: 0x4BE4, symBinAddr: 0x10000812C, symSize: 0x3C }
  - { offsetInCU: 0x13B1D, offset: 0x13B1D, size: 0x8, addend: 0x0, symName: __ZNKSt3__15dequeINS_4pairImmEENS_9allocatorIS2_EEE14__annotate_newB8ue170006Em, symObjAddr: 0x4C2C, symBinAddr: 0x100008174, symSize: 0xC8 }
  - { offsetInCU: 0x13B52, offset: 0x13B52, size: 0x8, addend: 0x0, symName: __ZNSt3__114__split_bufferIPNS_4pairImmEENS_9allocatorIS3_EEEC2B8ue170006Ev, symObjAddr: 0x4CF4, symBinAddr: 0x10000823C, symSize: 0x50 }
  - { offsetInCU: 0x13B81, offset: 0x13B81, size: 0x8, addend: 0x0, symName: __ZNSt3__117__compressed_pairIPPNS_4pairImmEENS_9allocatorIS3_EEEC1B8ue170006IDnNS_18__default_init_tagEEEOT_OT0_, symObjAddr: 0x4D44, symBinAddr: 0x10000828C, symSize: 0x3C }
  - { offsetInCU: 0x13BD9, offset: 0x13BD9, size: 0x8, addend: 0x0, symName: __ZNSt3__117__compressed_pairIPPNS_4pairImmEENS_9allocatorIS3_EEEC2B8ue170006IDnNS_18__default_init_tagEEEOT_OT0_, symObjAddr: 0x4D80, symBinAddr: 0x1000082C8, symSize: 0x40 }
  - { offsetInCU: 0x13C31, offset: 0x13C31, size: 0x8, addend: 0x0, symName: __ZNSt3__122__compressed_pair_elemIPPNS_4pairImmEELi0ELb0EEC2B8ue170006IDnvEEOT_, symObjAddr: 0x4DC0, symBinAddr: 0x100008308, symSize: 0x1C }
  - { offsetInCU: 0x13C73, offset: 0x13C73, size: 0x8, addend: 0x0, symName: __ZNSt3__122__compressed_pair_elemINS_9allocatorIPNS_4pairImmEEEELi1ELb1EEC2B8ue170006ENS_18__default_init_tagE, symObjAddr: 0x4DDC, symBinAddr: 0x100008324, symSize: 0x2C }
  - { offsetInCU: 0x13CA7, offset: 0x13CA7, size: 0x8, addend: 0x0, symName: __ZNSt3__19allocatorIPNS_4pairImmEEEC2B8ue170006Ev, symObjAddr: 0x4E08, symBinAddr: 0x100008350, symSize: 0x2C }
  - { offsetInCU: 0x13CD1, offset: 0x13CD1, size: 0x8, addend: 0x0, symName: __ZNSt3__116__non_trivial_ifILb1ENS_9allocatorIPNS_4pairImmEEEEEC2B8ue170006Ev, symObjAddr: 0x4E34, symBinAddr: 0x10000837C, symSize: 0x14 }
  - { offsetInCU: 0x13CFB, offset: 0x13CFB, size: 0x8, addend: 0x0, symName: __ZNSt3__117__compressed_pairImNS_9allocatorINS_4pairImmEEEEEC2B8ue170006IiNS_18__default_init_tagEEEOT_OT0_, symObjAddr: 0x4E48, symBinAddr: 0x100008390, symSize: 0x40 }
  - { offsetInCU: 0x13D53, offset: 0x13D53, size: 0x8, addend: 0x0, symName: __ZNSt3__122__compressed_pair_elemImLi0ELb0EEC2B8ue170006IivEEOT_, symObjAddr: 0x4E88, symBinAddr: 0x1000083D0, symSize: 0x24 }
  - { offsetInCU: 0x13D95, offset: 0x13D95, size: 0x8, addend: 0x0, symName: __ZNSt3__122__compressed_pair_elemINS_9allocatorINS_4pairImmEEEELi1ELb1EEC2B8ue170006ENS_18__default_init_tagE, symObjAddr: 0x4EAC, symBinAddr: 0x1000083F4, symSize: 0x2C }
  - { offsetInCU: 0x13DC9, offset: 0x13DC9, size: 0x8, addend: 0x0, symName: __ZNSt3__19allocatorINS_4pairImmEEEC2B8ue170006Ev, symObjAddr: 0x4ED8, symBinAddr: 0x100008420, symSize: 0x2C }
  - { offsetInCU: 0x13DF3, offset: 0x13DF3, size: 0x8, addend: 0x0, symName: __ZNSt3__116__non_trivial_ifILb1ENS_9allocatorINS_4pairImmEEEEEC2B8ue170006Ev, symObjAddr: 0x4F04, symBinAddr: 0x10000844C, symSize: 0x14 }
  - { offsetInCU: 0x13E1D, offset: 0x13E1D, size: 0x8, addend: 0x0, symName: __ZNKSt3__15dequeINS_4pairImmEENS_9allocatorIS2_EEE18__annotate_from_toB8ue170006EmmNS5_22__asan_annotation_typeENS5_23__asan_annotation_placeE, symObjAddr: 0x4F18, symBinAddr: 0x100008460, symSize: 0x580 }
  - { offsetInCU: 0x13FD9, offset: 0x13FD9, size: 0x8, addend: 0x0, symName: __ZNKSt3__114__split_bufferIPNS_4pairImmEENS_9allocatorIS3_EEE4sizeB8ue170006Ev, symObjAddr: 0x5498, symBinAddr: 0x1000089E0, symSize: 0x28 }
  - { offsetInCU: 0x13FFF, offset: 0x13FFF, size: 0x8, addend: 0x0, symName: __ZNKSt3__114__split_bufferIPNS_4pairImmEENS_9allocatorIS3_EEE5beginB8ue170006Ev, symObjAddr: 0x54C0, symBinAddr: 0x100008A08, symSize: 0x18 }
  - { offsetInCU: 0x14025, offset: 0x14025, size: 0x8, addend: 0x0, symName: __ZNKSt3__15dequeINS_4pairImmEENS_9allocatorIS2_EEE4sizeB8ue170006Ev, symObjAddr: 0x54D8, symBinAddr: 0x100008A20, symSize: 0x28 }
  - { offsetInCU: 0x1404B, offset: 0x1404B, size: 0x8, addend: 0x0, symName: __ZNKSt3__15dequeINS_4pairImmEENS_9allocatorIS2_EEE44__annotate_double_ended_contiguous_containerB8ue170006EPKvS7_S7_S7_S7_S7_, symObjAddr: 0x5514, symBinAddr: 0x100008A5C, symSize: 0x28 }
  - { offsetInCU: 0x140B3, offset: 0x140B3, size: 0x8, addend: 0x0, symName: __ZNKSt3__15dequeINS_4pairImmEENS_9allocatorIS2_EEE6__sizeB8ue170006Ev, symObjAddr: 0x553C, symBinAddr: 0x100008A84, symSize: 0x28 }
  - { offsetInCU: 0x140D9, offset: 0x140D9, size: 0x8, addend: 0x0, symName: __ZNKSt3__117__compressed_pairImNS_9allocatorINS_4pairImmEEEEE5firstB8ue170006Ev, symObjAddr: 0x5564, symBinAddr: 0x100008AAC, symSize: 0x24 }
  - { offsetInCU: 0x140FF, offset: 0x140FF, size: 0x8, addend: 0x0, symName: __ZNKSt3__122__compressed_pair_elemImLi0ELb0EE5__getB8ue170006Ev, symObjAddr: 0x5588, symBinAddr: 0x100008AD0, symSize: 0x14 }
  - { offsetInCU: 0x14125, offset: 0x14125, size: 0x8, addend: 0x0, symName: __ZNSt3__16vectorINS0_I10CoordinateNS_9allocatorIS1_EEEENS2_IS4_EEEC2B8ue170006Ev, symObjAddr: 0x559C, symBinAddr: 0x100008AE4, symSize: 0x4C }
  - { offsetInCU: 0x1414F, offset: 0x1414F, size: 0x8, addend: 0x0, symName: __ZNSt3__117__compressed_pairIPNS_6vectorI10CoordinateNS_9allocatorIS2_EEEENS3_IS5_EEEC1B8ue170006IDnNS_18__default_init_tagEEEOT_OT0_, symObjAddr: 0x55E8, symBinAddr: 0x100008B30, symSize: 0x3C }
  - { offsetInCU: 0x141A7, offset: 0x141A7, size: 0x8, addend: 0x0, symName: __ZNSt3__117__compressed_pairIPNS_6vectorI10CoordinateNS_9allocatorIS2_EEEENS3_IS5_EEEC2B8ue170006IDnNS_18__default_init_tagEEEOT_OT0_, symObjAddr: 0x5624, symBinAddr: 0x100008B6C, symSize: 0x40 }
  - { offsetInCU: 0x141FF, offset: 0x141FF, size: 0x8, addend: 0x0, symName: __ZNSt3__122__compressed_pair_elemIPNS_6vectorI10CoordinateNS_9allocatorIS2_EEEELi0ELb0EEC2B8ue170006IDnvEEOT_, symObjAddr: 0x5664, symBinAddr: 0x100008BAC, symSize: 0x1C }
  - { offsetInCU: 0x14241, offset: 0x14241, size: 0x8, addend: 0x0, symName: __ZNSt3__122__compressed_pair_elemINS_9allocatorINS_6vectorI10CoordinateNS1_IS3_EEEEEELi1ELb1EEC2B8ue170006ENS_18__default_init_tagE, symObjAddr: 0x5680, symBinAddr: 0x100008BC8, symSize: 0x2C }
  - { offsetInCU: 0x14275, offset: 0x14275, size: 0x8, addend: 0x0, symName: __ZNSt3__19allocatorINS_6vectorI10CoordinateNS0_IS2_EEEEEC2B8ue170006Ev, symObjAddr: 0x56AC, symBinAddr: 0x100008BF4, symSize: 0x2C }
  - { offsetInCU: 0x1429F, offset: 0x1429F, size: 0x8, addend: 0x0, symName: __ZNSt3__116__non_trivial_ifILb1ENS_9allocatorINS_6vectorI10CoordinateNS1_IS3_EEEEEEEC2B8ue170006Ev, symObjAddr: 0x56D8, symBinAddr: 0x100008C20, symSize: 0x14 }
  - { offsetInCU: 0x142C9, offset: 0x142C9, size: 0x8, addend: 0x0, symName: __ZNSt3__15dequeINS_4pairImmEENS_9allocatorIS2_EEED2B8ue170006Ev, symObjAddr: 0x56EC, symBinAddr: 0x100008C34, symSize: 0xA4 }
  - { offsetInCU: 0x1431F, offset: 0x1431F, size: 0x8, addend: 0x0, symName: __ZNSt3__15dequeINS_4pairImmEENS_9allocatorIS2_EEE5clearEv, symObjAddr: 0x5790, symBinAddr: 0x100008CD8, symSize: 0x180 }
  - { offsetInCU: 0x1437A, offset: 0x1437A, size: 0x8, addend: 0x0, symName: __ZNKSt3__15dequeINS_4pairImmEENS_9allocatorIS2_EEE17__annotate_deleteB8ue170006Ev, symObjAddr: 0x5910, symBinAddr: 0x100008E58, symSize: 0xE8 }
  - { offsetInCU: 0x143BD, offset: 0x143BD, size: 0x8, addend: 0x0, symName: __ZNSt3__114__split_bufferIPNS_4pairImmEENS_9allocatorIS3_EEE5beginB8ue170006Ev, symObjAddr: 0x59F8, symBinAddr: 0x100008F40, symSize: 0x18 }
  - { offsetInCU: 0x143E3, offset: 0x143E3, size: 0x8, addend: 0x0, symName: __ZNSt3__114__split_bufferIPNS_4pairImmEENS_9allocatorIS3_EEE3endB8ue170006Ev, symObjAddr: 0x5A10, symBinAddr: 0x100008F58, symSize: 0x18 }
  - { offsetInCU: 0x14409, offset: 0x14409, size: 0x8, addend: 0x0, symName: __ZNSt3__116allocator_traitsINS_9allocatorINS_4pairImmEEEEE10deallocateB8ue170006ERS4_PS3_m, symObjAddr: 0x5A28, symBinAddr: 0x100008F70, symSize: 0x34 }
  - { offsetInCU: 0x1444B, offset: 0x1444B, size: 0x8, addend: 0x0, symName: __ZNSt3__15dequeINS_4pairImmEENS_9allocatorIS2_EEE7__allocB8ue170006Ev, symObjAddr: 0x5A5C, symBinAddr: 0x100008FA4, symSize: 0x28 }
  - { offsetInCU: 0x14471, offset: 0x14471, size: 0x8, addend: 0x0, symName: __ZNSt3__114__split_bufferIPNS_4pairImmEENS_9allocatorIS3_EEED1Ev, symObjAddr: 0x5A84, symBinAddr: 0x100008FCC, symSize: 0x2C }
  - { offsetInCU: 0x1449D, offset: 0x1449D, size: 0x8, addend: 0x0, symName: __ZNSt3__15dequeINS_4pairImmEENS_9allocatorIS2_EEE5beginB8ue170006Ev, symObjAddr: 0x5AB0, symBinAddr: 0x100008FF8, symSize: 0xB8 }
  - { offsetInCU: 0x144D2, offset: 0x144D2, size: 0x8, addend: 0x0, symName: __ZNSt3__15dequeINS_4pairImmEENS_9allocatorIS2_EEE3endB8ue170006Ev, symObjAddr: 0x5B68, symBinAddr: 0x1000090B0, symSize: 0xBC }
  - { offsetInCU: 0x14516, offset: 0x14516, size: 0x8, addend: 0x0, symName: __ZNSt3__116allocator_traitsINS_9allocatorINS_4pairImmEEEEE7destroyB8ue170006IS3_vEEvRS4_PT_, symObjAddr: 0x5C58, symBinAddr: 0x1000091A0, symSize: 0x2C }
  - { offsetInCU: 0x14553, offset: 0x14553, size: 0x8, addend: 0x0, symName: __ZNKSt3__116__deque_iteratorINS_4pairImmEEPS2_RS2_PS3_lLl256EEdeB8ue170006Ev, symObjAddr: 0x5C84, symBinAddr: 0x1000091CC, symSize: 0x18 }
  - { offsetInCU: 0x14579, offset: 0x14579, size: 0x8, addend: 0x0, symName: __ZNSt3__116__deque_iteratorINS_4pairImmEEPS2_RS2_PS3_lLl256EEppB8ue170006Ev, symObjAddr: 0x5C9C, symBinAddr: 0x1000091E4, symSize: 0x70 }
  - { offsetInCU: 0x1459F, offset: 0x1459F, size: 0x8, addend: 0x0, symName: __ZNSt3__15dequeINS_4pairImmEENS_9allocatorIS2_EEE6__sizeB8ue170006Ev, symObjAddr: 0x5D0C, symBinAddr: 0x100009254, symSize: 0x28 }
  - { offsetInCU: 0x145C5, offset: 0x145C5, size: 0x8, addend: 0x0, symName: __ZNSt3__114__split_bufferIPNS_4pairImmEENS_9allocatorIS3_EEE5frontB8ue170006Ev, symObjAddr: 0x5D34, symBinAddr: 0x10000927C, symSize: 0x18 }
  - { offsetInCU: 0x145EB, offset: 0x145EB, size: 0x8, addend: 0x0, symName: __ZNSt3__114__split_bufferIPNS_4pairImmEENS_9allocatorIS3_EEE9pop_frontB8ue170006Ev, symObjAddr: 0x5D4C, symBinAddr: 0x100009294, symSize: 0x2C }
  - { offsetInCU: 0x14611, offset: 0x14611, size: 0x8, addend: 0x0, symName: __ZNKSt3__114__split_bufferIPNS_4pairImmEENS_9allocatorIS3_EEE5emptyB8ue170006Ev, symObjAddr: 0x5D78, symBinAddr: 0x1000092C0, symSize: 0x28 }
  - { offsetInCU: 0x14637, offset: 0x14637, size: 0x8, addend: 0x0, symName: __ZNSt3__116__deque_iteratorINS_4pairImmEEPS2_RS2_PS3_lLl256EEC1B8ue170006ES5_S3_, symObjAddr: 0x5DA0, symBinAddr: 0x1000092E8, symSize: 0x3C }
  - { offsetInCU: 0x1467F, offset: 0x1467F, size: 0x8, addend: 0x0, symName: __ZNSt3__116__deque_iteratorINS_4pairImmEEPS2_RS2_PS3_lLl256EEC2B8ue170006ES5_S3_, symObjAddr: 0x5DDC, symBinAddr: 0x100009324, symSize: 0x2C }
  - { offsetInCU: 0x146C7, offset: 0x146C7, size: 0x8, addend: 0x0, symName: __ZNSt3__19allocatorINS_4pairImmEEE7destroyB8ue170006EPS2_, symObjAddr: 0x5E38, symBinAddr: 0x100009380, symSize: 0x14 }
  - { offsetInCU: 0x146FB, offset: 0x146FB, size: 0x8, addend: 0x0, symName: __ZNSt3__117__compressed_pairImNS_9allocatorINS_4pairImmEEEEE5firstB8ue170006Ev, symObjAddr: 0x5E4C, symBinAddr: 0x100009394, symSize: 0x24 }
  - { offsetInCU: 0x14721, offset: 0x14721, size: 0x8, addend: 0x0, symName: __ZNSt3__122__compressed_pair_elemImLi0ELb0EE5__getB8ue170006Ev, symObjAddr: 0x5E70, symBinAddr: 0x1000093B8, symSize: 0x14 }
  - { offsetInCU: 0x14747, offset: 0x14747, size: 0x8, addend: 0x0, symName: __ZNSt3__114__split_bufferIPNS_4pairImmEENS_9allocatorIS3_EEE19__destruct_at_beginB8ue170006EPS3_, symObjAddr: 0x5E84, symBinAddr: 0x1000093CC, symSize: 0x2C }
  - { offsetInCU: 0x1477B, offset: 0x1477B, size: 0x8, addend: 0x0, symName: __ZNSt3__114__split_bufferIPNS_4pairImmEENS_9allocatorIS3_EEE19__destruct_at_beginEPS3_NS_17integral_constantIbLb1EEE, symObjAddr: 0x5EB0, symBinAddr: 0x1000093F8, symSize: 0x20 }
  - { offsetInCU: 0x147BB, offset: 0x147BB, size: 0x8, addend: 0x0, symName: __ZNKSt3__15dequeINS_4pairImmEENS_9allocatorIS2_EEE22__annotate_whole_blockB8ue170006EmNS5_22__asan_annotation_typeE, symObjAddr: 0x5ED0, symBinAddr: 0x100009418, symSize: 0xAC }
  - { offsetInCU: 0x1482C, offset: 0x1482C, size: 0x8, addend: 0x0, symName: __ZNKSt3__15dequeINS_4pairImmEENS_9allocatorIS2_EEE23__annotate_poison_blockB8ue170006EPKvS7_, symObjAddr: 0x5F7C, symBinAddr: 0x1000094C4, symSize: 0x44 }
  - { offsetInCU: 0x14870, offset: 0x14870, size: 0x8, addend: 0x0, symName: __ZNSt3__19allocatorINS_4pairImmEEE10deallocateB8ue170006EPS2_m, symObjAddr: 0x5FC0, symBinAddr: 0x100009508, symSize: 0x40 }
  - { offsetInCU: 0x148B2, offset: 0x148B2, size: 0x8, addend: 0x0, symName: __ZNSt3__117__compressed_pairImNS_9allocatorINS_4pairImmEEEEE6secondB8ue170006Ev, symObjAddr: 0x6128, symBinAddr: 0x100009670, symSize: 0x24 }
  - { offsetInCU: 0x148D8, offset: 0x148D8, size: 0x8, addend: 0x0, symName: __ZNSt3__122__compressed_pair_elemINS_9allocatorINS_4pairImmEEEELi1ELb1EE5__getB8ue170006Ev, symObjAddr: 0x614C, symBinAddr: 0x100009694, symSize: 0x14 }
  - { offsetInCU: 0x148FE, offset: 0x148FE, size: 0x8, addend: 0x0, symName: __ZNSt3__114__split_bufferIPNS_4pairImmEENS_9allocatorIS3_EEED2Ev, symObjAddr: 0x6160, symBinAddr: 0x1000096A8, symSize: 0x8C }
  - { offsetInCU: 0x1492A, offset: 0x1492A, size: 0x8, addend: 0x0, symName: __ZNSt3__114__split_bufferIPNS_4pairImmEENS_9allocatorIS3_EEE5clearB8ue170006Ev, symObjAddr: 0x61EC, symBinAddr: 0x100009734, symSize: 0x28 }
  - { offsetInCU: 0x14950, offset: 0x14950, size: 0x8, addend: 0x0, symName: __ZNSt3__116allocator_traitsINS_9allocatorIPNS_4pairImmEEEEE10deallocateB8ue170006ERS5_PS4_m, symObjAddr: 0x6214, symBinAddr: 0x10000975C, symSize: 0x34 }
  - { offsetInCU: 0x14992, offset: 0x14992, size: 0x8, addend: 0x0, symName: __ZNSt3__114__split_bufferIPNS_4pairImmEENS_9allocatorIS3_EEE7__allocB8ue170006Ev, symObjAddr: 0x6248, symBinAddr: 0x100009790, symSize: 0x28 }
  - { offsetInCU: 0x149B8, offset: 0x149B8, size: 0x8, addend: 0x0, symName: __ZNKSt3__114__split_bufferIPNS_4pairImmEENS_9allocatorIS3_EEE8capacityB8ue170006Ev, symObjAddr: 0x6270, symBinAddr: 0x1000097B8, symSize: 0x40 }
  - { offsetInCU: 0x149DE, offset: 0x149DE, size: 0x8, addend: 0x0, symName: __ZNSt3__114__split_bufferIPNS_4pairImmEENS_9allocatorIS3_EEE17__destruct_at_endB8ue170006EPS3_, symObjAddr: 0x62B0, symBinAddr: 0x1000097F8, symSize: 0x2C }
  - { offsetInCU: 0x14A12, offset: 0x14A12, size: 0x8, addend: 0x0, symName: __ZNSt3__114__split_bufferIPNS_4pairImmEENS_9allocatorIS3_EEE17__destruct_at_endB8ue170006EPS3_NS_17integral_constantIbLb0EEE, symObjAddr: 0x62DC, symBinAddr: 0x100009824, symSize: 0x80 }
  - { offsetInCU: 0x14A52, offset: 0x14A52, size: 0x8, addend: 0x0, symName: __ZNSt3__116allocator_traitsINS_9allocatorIPNS_4pairImmEEEEE7destroyB8ue170006IS4_vEEvRS5_PT_, symObjAddr: 0x635C, symBinAddr: 0x1000098A4, symSize: 0x2C }
  - { offsetInCU: 0x14A8F, offset: 0x14A8F, size: 0x8, addend: 0x0, symName: __ZNSt3__19allocatorIPNS_4pairImmEEE7destroyB8ue170006EPS3_, symObjAddr: 0x639C, symBinAddr: 0x1000098E4, symSize: 0x14 }
  - { offsetInCU: 0x14AC3, offset: 0x14AC3, size: 0x8, addend: 0x0, symName: __ZNSt3__19allocatorIPNS_4pairImmEEE10deallocateB8ue170006EPS3_m, symObjAddr: 0x63B0, symBinAddr: 0x1000098F8, symSize: 0x40 }
  - { offsetInCU: 0x14B05, offset: 0x14B05, size: 0x8, addend: 0x0, symName: __ZNSt3__117__compressed_pairIPPNS_4pairImmEENS_9allocatorIS3_EEE6secondB8ue170006Ev, symObjAddr: 0x63F0, symBinAddr: 0x100009938, symSize: 0x24 }
  - { offsetInCU: 0x14B2B, offset: 0x14B2B, size: 0x8, addend: 0x0, symName: __ZNSt3__122__compressed_pair_elemINS_9allocatorIPNS_4pairImmEEEELi1ELb1EE5__getB8ue170006Ev, symObjAddr: 0x6414, symBinAddr: 0x10000995C, symSize: 0x14 }
  - { offsetInCU: 0x14B51, offset: 0x14B51, size: 0x8, addend: 0x0, symName: __ZNKSt3__114__split_bufferIPNS_4pairImmEENS_9allocatorIS3_EEE9__end_capB8ue170006Ev, symObjAddr: 0x6428, symBinAddr: 0x100009970, symSize: 0x28 }
  - { offsetInCU: 0x14B77, offset: 0x14B77, size: 0x8, addend: 0x0, symName: __ZNKSt3__117__compressed_pairIPPNS_4pairImmEENS_9allocatorIS3_EEE5firstB8ue170006Ev, symObjAddr: 0x6450, symBinAddr: 0x100009998, symSize: 0x24 }
  - { offsetInCU: 0x14B9D, offset: 0x14B9D, size: 0x8, addend: 0x0, symName: __ZNKSt3__122__compressed_pair_elemIPPNS_4pairImmEELi0ELb0EE5__getB8ue170006Ev, symObjAddr: 0x6474, symBinAddr: 0x1000099BC, symSize: 0x14 }
  - { offsetInCU: 0x14BC3, offset: 0x14BC3, size: 0x8, addend: 0x0, symName: __ZN12TreasureHuntD2Ev, symObjAddr: 0x6488, symBinAddr: 0x1000099D0, symSize: 0x6C }
  - { offsetInCU: 0x14BEF, offset: 0x14BEF, size: 0x8, addend: 0x0, symName: __ZNSt3__16vectorINS0_I10CoordinateNS_9allocatorIS1_EEEENS2_IS4_EEED1B8ue170006Ev, symObjAddr: 0x64F4, symBinAddr: 0x100009A3C, symSize: 0x2C }
  - { offsetInCU: 0x14C19, offset: 0x14C19, size: 0x8, addend: 0x0, symName: __ZNSt3__16vectorINS0_I10CoordinateNS_9allocatorIS1_EEEENS2_IS4_EEED2B8ue170006Ev, symObjAddr: 0x6520, symBinAddr: 0x100009A68, symSize: 0x44 }
  - { offsetInCU: 0x14C43, offset: 0x14C43, size: 0x8, addend: 0x0, symName: __ZNSt3__16vectorINS0_I10CoordinateNS_9allocatorIS1_EEEENS2_IS4_EEE16__destroy_vectorC1B8ue170006ERS6_, symObjAddr: 0x6564, symBinAddr: 0x100009AAC, symSize: 0x34 }
  - { offsetInCU: 0x14C7C, offset: 0x14C7C, size: 0x8, addend: 0x0, symName: __ZNSt3__16vectorINS0_I10CoordinateNS_9allocatorIS1_EEEENS2_IS4_EEE16__destroy_vectorclB8ue170006Ev, symObjAddr: 0x6598, symBinAddr: 0x100009AE0, symSize: 0x90 }
  - { offsetInCU: 0x14CA2, offset: 0x14CA2, size: 0x8, addend: 0x0, symName: __ZNSt3__16vectorINS0_I10CoordinateNS_9allocatorIS1_EEEENS2_IS4_EEE16__destroy_vectorC2B8ue170006ERS6_, symObjAddr: 0x6628, symBinAddr: 0x100009B70, symSize: 0x20 }
  - { offsetInCU: 0x14CDB, offset: 0x14CDB, size: 0x8, addend: 0x0, symName: __ZNSt3__16vectorINS0_I10CoordinateNS_9allocatorIS1_EEEENS2_IS4_EEE7__clearB8ue170006Ev, symObjAddr: 0x6648, symBinAddr: 0x100009B90, symSize: 0x28 }
  - { offsetInCU: 0x14D01, offset: 0x14D01, size: 0x8, addend: 0x0, symName: __ZNKSt3__16vectorINS0_I10CoordinateNS_9allocatorIS1_EEEENS2_IS4_EEE17__annotate_deleteB8ue170006Ev, symObjAddr: 0x6670, symBinAddr: 0x100009BB8, symSize: 0xD4 }
  - { offsetInCU: 0x14D27, offset: 0x14D27, size: 0x8, addend: 0x0, symName: __ZNSt3__116allocator_traitsINS_9allocatorINS_6vectorI10CoordinateNS1_IS3_EEEEEEE10deallocateB8ue170006ERS6_PS5_m, symObjAddr: 0x6744, symBinAddr: 0x100009C8C, symSize: 0x34 }
  - { offsetInCU: 0x14D69, offset: 0x14D69, size: 0x8, addend: 0x0, symName: __ZNSt3__16vectorINS0_I10CoordinateNS_9allocatorIS1_EEEENS2_IS4_EEE7__allocB8ue170006Ev, symObjAddr: 0x6778, symBinAddr: 0x100009CC0, symSize: 0x28 }
  - { offsetInCU: 0x14D8F, offset: 0x14D8F, size: 0x8, addend: 0x0, symName: __ZNKSt3__16vectorINS0_I10CoordinateNS_9allocatorIS1_EEEENS2_IS4_EEE8capacityB8ue170006Ev, symObjAddr: 0x67A0, symBinAddr: 0x100009CE8, symSize: 0x40 }
  - { offsetInCU: 0x14DB5, offset: 0x14DB5, size: 0x8, addend: 0x0, symName: __ZNSt3__16vectorINS0_I10CoordinateNS_9allocatorIS1_EEEENS2_IS4_EEE22__base_destruct_at_endB8ue170006EPS4_, symObjAddr: 0x67E0, symBinAddr: 0x100009D28, symSize: 0x8C }
  - { offsetInCU: 0x14DF9, offset: 0x14DF9, size: 0x8, addend: 0x0, symName: __ZNSt3__116allocator_traitsINS_9allocatorINS_6vectorI10CoordinateNS1_IS3_EEEEEEE7destroyB8ue170006IS5_vEEvRS6_PT_, symObjAddr: 0x686C, symBinAddr: 0x100009DB4, symSize: 0x2C }
  - { offsetInCU: 0x14E36, offset: 0x14E36, size: 0x8, addend: 0x0, symName: __ZNSt3__19allocatorINS_6vectorI10CoordinateNS0_IS2_EEEEE7destroyB8ue170006EPS4_, symObjAddr: 0x68AC, symBinAddr: 0x100009DF4, symSize: 0x28 }
  - { offsetInCU: 0x14E6A, offset: 0x14E6A, size: 0x8, addend: 0x0, symName: __ZNKSt3__16vectorINS0_I10CoordinateNS_9allocatorIS1_EEEENS2_IS4_EEE31__annotate_contiguous_containerB8ue170006EPKvS8_S8_S8_, symObjAddr: 0x68D4, symBinAddr: 0x100009E1C, symSize: 0x20 }
  - { offsetInCU: 0x14EBC, offset: 0x14EBC, size: 0x8, addend: 0x0, symName: __ZNKSt3__16vectorINS0_I10CoordinateNS_9allocatorIS1_EEEENS2_IS4_EEE4dataB8ue170006Ev, symObjAddr: 0x68F4, symBinAddr: 0x100009E3C, symSize: 0x28 }
  - { offsetInCU: 0x14EE2, offset: 0x14EE2, size: 0x8, addend: 0x0, symName: __ZNKSt3__16vectorINS0_I10CoordinateNS_9allocatorIS1_EEEENS2_IS4_EEE4sizeB8ue170006Ev, symObjAddr: 0x691C, symBinAddr: 0x100009E64, symSize: 0x28 }
  - { offsetInCU: 0x14F08, offset: 0x14F08, size: 0x8, addend: 0x0, symName: __ZNSt3__19allocatorINS_6vectorI10CoordinateNS0_IS2_EEEEE10deallocateB8ue170006EPS4_m, symObjAddr: 0x6944, symBinAddr: 0x100009E8C, symSize: 0x44 }
  - { offsetInCU: 0x14F4A, offset: 0x14F4A, size: 0x8, addend: 0x0, symName: __ZNSt3__117__compressed_pairIPNS_6vectorI10CoordinateNS_9allocatorIS2_EEEENS3_IS5_EEE6secondB8ue170006Ev, symObjAddr: 0x6988, symBinAddr: 0x100009ED0, symSize: 0x24 }
  - { offsetInCU: 0x14F70, offset: 0x14F70, size: 0x8, addend: 0x0, symName: __ZNSt3__122__compressed_pair_elemINS_9allocatorINS_6vectorI10CoordinateNS1_IS3_EEEEEELi1ELb1EE5__getB8ue170006Ev, symObjAddr: 0x69AC, symBinAddr: 0x100009EF4, symSize: 0x14 }
  - { offsetInCU: 0x14F96, offset: 0x14F96, size: 0x8, addend: 0x0, symName: __ZNKSt3__16vectorINS0_I10CoordinateNS_9allocatorIS1_EEEENS2_IS4_EEE9__end_capB8ue170006Ev, symObjAddr: 0x69C0, symBinAddr: 0x100009F08, symSize: 0x28 }
  - { offsetInCU: 0x14FBC, offset: 0x14FBC, size: 0x8, addend: 0x0, symName: __ZNKSt3__117__compressed_pairIPNS_6vectorI10CoordinateNS_9allocatorIS2_EEEENS3_IS5_EEE5firstB8ue170006Ev, symObjAddr: 0x69E8, symBinAddr: 0x100009F30, symSize: 0x24 }
  - { offsetInCU: 0x14FE2, offset: 0x14FE2, size: 0x8, addend: 0x0, symName: __ZNKSt3__122__compressed_pair_elemIPNS_6vectorI10CoordinateNS_9allocatorIS2_EEEELi0ELb0EE5__getB8ue170006Ev, symObjAddr: 0x6A0C, symBinAddr: 0x100009F54, symSize: 0x14 }
  - { offsetInCU: 0x15008, offset: 0x15008, size: 0x8, addend: 0x0, symName: __ZN10CoordinateC2Ev, symObjAddr: 0x6A20, symBinAddr: 0x100009F68, symSize: 0x28 }
  - { offsetInCU: 0x15032, offset: 0x15032, size: 0x8, addend: 0x0, symName: __ZNSt3__14pairIiiEC2B8ue170006IRmS3_LPv0EEEOT_OT0_, symObjAddr: 0x6A48, symBinAddr: 0x100009F90, symSize: 0x34 }
  - { offsetInCU: 0x15090, offset: 0x15090, size: 0x8, addend: 0x0, symName: __ZN10CoordinateC2Eccb, symObjAddr: 0x6A7C, symBinAddr: 0x100009FC4, symSize: 0x44 }
  - { offsetInCU: 0x150E4, offset: 0x150E4, size: 0x8, addend: 0x0, symName: __ZNSt3__14pairImmEC2B8ue170006IRmS3_LPv0EEEOT_OT0_, symObjAddr: 0x6AC0, symBinAddr: 0x10000A008, symSize: 0x34 }
  - { offsetInCU: 0x15142, offset: 0x15142, size: 0x8, addend: 0x0, symName: __ZNKSt3__111__wrap_iterIPcE4baseB8ue170006Ev, symObjAddr: 0x6B3C, symBinAddr: 0x10000A084, symSize: 0x18 }
  - { offsetInCU: 0x15168, offset: 0x15168, size: 0x8, addend: 0x0, symName: __ZNSt3__14pairImmEC2B8ue170006ImRmLPv0EEEOT_OT0_, symObjAddr: 0x6B54, symBinAddr: 0x10000A09C, symSize: 0x34 }
  - { offsetInCU: 0x151C6, offset: 0x151C6, size: 0x8, addend: 0x0, symName: __ZNSt3__14pairImmEC2B8ue170006IRmmLPv0EEEOT_OT0_, symObjAddr: 0x6B88, symBinAddr: 0x10000A0D0, symSize: 0x34 }
  - { offsetInCU: 0x15224, offset: 0x15224, size: 0x8, addend: 0x0, symName: __ZNSt3__14pairImmEC2B8ue170006ILb1ELPv0EEEv, symObjAddr: 0x6BBC, symBinAddr: 0x10000A104, symSize: 0x1C }
  - { offsetInCU: 0x1525E, offset: 0x1525E, size: 0x8, addend: 0x0, symName: __ZNSt3__112basic_stringIcNS_11char_traitsIcEENS_9allocatorIcEEEC2B8ue170006ILi0EEEPKc, symObjAddr: 0x6BD8, symBinAddr: 0x10000A120, symSize: 0x58 }
  - { offsetInCU: 0x1529D, offset: 0x1529D, size: 0x8, addend: 0x0, symName: __ZNSt3__117__compressed_pairINS_12basic_stringIcNS_11char_traitsIcEENS_9allocatorIcEEE5__repES5_EC1B8ue170006INS_18__default_init_tagESA_EEOT_OT0_, symObjAddr: 0x6C30, symBinAddr: 0x10000A178, symSize: 0x3C }
  - { offsetInCU: 0x152F5, offset: 0x152F5, size: 0x8, addend: 0x0, symName: __ZNSt3__111char_traitsIcE6lengthB8ue170006EPKc, symObjAddr: 0x6C6C, symBinAddr: 0x10000A1B4, symSize: 0x34 }
  - { offsetInCU: 0x15318, offset: 0x15318, size: 0x8, addend: 0x0, symName: __ZNSt3__117__compressed_pairINS_12basic_stringIcNS_11char_traitsIcEENS_9allocatorIcEEE5__repES5_EC2B8ue170006INS_18__default_init_tagESA_EEOT_OT0_, symObjAddr: 0x6CA0, symBinAddr: 0x10000A1E8, symSize: 0x3C }
  - { offsetInCU: 0x15370, offset: 0x15370, size: 0x8, addend: 0x0, symName: __ZNSt3__122__compressed_pair_elemINS_12basic_stringIcNS_11char_traitsIcEENS_9allocatorIcEEE5__repELi0ELb0EEC2B8ue170006ENS_18__default_init_tagE, symObjAddr: 0x6CDC, symBinAddr: 0x10000A224, symSize: 0x14 }
  - { offsetInCU: 0x153A4, offset: 0x153A4, size: 0x8, addend: 0x0, symName: __ZNSt3__122__compressed_pair_elemINS_9allocatorIcEELi1ELb1EEC2B8ue170006ENS_18__default_init_tagE, symObjAddr: 0x6CF0, symBinAddr: 0x10000A238, symSize: 0x2C }
  - { offsetInCU: 0x153D8, offset: 0x153D8, size: 0x8, addend: 0x0, symName: __ZNSt3__19allocatorIcEC2B8ue170006Ev, symObjAddr: 0x6D1C, symBinAddr: 0x10000A264, symSize: 0x2C }
  - { offsetInCU: 0x15402, offset: 0x15402, size: 0x8, addend: 0x0, symName: __ZNSt3__116__non_trivial_ifILb1ENS_9allocatorIcEEEC2B8ue170006Ev, symObjAddr: 0x6D48, symBinAddr: 0x10000A290, symSize: 0x14 }
  - { offsetInCU: 0x1544A, offset: 0x1544A, size: 0x8, addend: 0x0, symName: __ZNKSt3__113basic_ostreamIcNS_11char_traitsIcEEE6sentrycvbB8ue170006Ev, symObjAddr: 0x6F6C, symBinAddr: 0x10000A4B4, symSize: 0x1C }
  - { offsetInCU: 0x15470, offset: 0x15470, size: 0x8, addend: 0x0, symName: __ZNSt3__119ostreambuf_iteratorIcNS_11char_traitsIcEEEC1B8ue170006ERNS_13basic_ostreamIcS2_EE, symObjAddr: 0x71C8, symBinAddr: 0x10000A710, symSize: 0x34 }
  - { offsetInCU: 0x154A8, offset: 0x154A8, size: 0x8, addend: 0x0, symName: __ZNKSt3__18ios_base5flagsB8ue170006Ev, symObjAddr: 0x71FC, symBinAddr: 0x10000A744, symSize: 0x18 }
  - { offsetInCU: 0x154D0, offset: 0x154D0, size: 0x8, addend: 0x0, symName: __ZNKSt3__19basic_iosIcNS_11char_traitsIcEEE4fillB8ue170006Ev, symObjAddr: 0x7214, symBinAddr: 0x10000A75C, symSize: 0x64 }
  - { offsetInCU: 0x154F8, offset: 0x154F8, size: 0x8, addend: 0x0, symName: __ZNKSt3__119ostreambuf_iteratorIcNS_11char_traitsIcEEE6failedB8ue170006Ev, symObjAddr: 0x7278, symBinAddr: 0x10000A7C0, symSize: 0x24 }
  - { offsetInCU: 0x1551E, offset: 0x1551E, size: 0x8, addend: 0x0, symName: __ZNSt3__19basic_iosIcNS_11char_traitsIcEEE8setstateB8ue170006Ej, symObjAddr: 0x729C, symBinAddr: 0x10000A7E4, symSize: 0x2C }
  - { offsetInCU: 0x15553, offset: 0x15553, size: 0x8, addend: 0x0, symName: __ZNKSt3__18ios_base5widthB8ue170006Ev, symObjAddr: 0x72C8, symBinAddr: 0x10000A810, symSize: 0x18 }
  - { offsetInCU: 0x1557B, offset: 0x1557B, size: 0x8, addend: 0x0, symName: __ZNSt3__115basic_streambufIcNS_11char_traitsIcEEE5sputnB8ue170006EPKcl, symObjAddr: 0x72E0, symBinAddr: 0x10000A828, symSize: 0x3C }
  - { offsetInCU: 0x155BD, offset: 0x155BD, size: 0x8, addend: 0x0, symName: __ZNSt3__112basic_stringIcNS_11char_traitsIcEENS_9allocatorIcEEEC1B8ue170006Emc, symObjAddr: 0x731C, symBinAddr: 0x10000A864, symSize: 0x3C }
  - { offsetInCU: 0x15605, offset: 0x15605, size: 0x8, addend: 0x0, symName: __ZNSt3__112basic_stringIcNS_11char_traitsIcEENS_9allocatorIcEEE4dataB8ue170006Ev, symObjAddr: 0x7358, symBinAddr: 0x10000A8A0, symSize: 0x28 }
  - { offsetInCU: 0x1562B, offset: 0x1562B, size: 0x8, addend: 0x0, symName: __ZNSt3__18ios_base5widthB8ue170006El, symObjAddr: 0x7380, symBinAddr: 0x10000A8C8, symSize: 0x2C }
  - { offsetInCU: 0x15671, offset: 0x15671, size: 0x8, addend: 0x0, symName: __ZNSt3__112basic_stringIcNS_11char_traitsIcEENS_9allocatorIcEEEC2B8ue170006Emc, symObjAddr: 0x73AC, symBinAddr: 0x10000A8F4, symSize: 0x4C }
  - { offsetInCU: 0x156B9, offset: 0x156B9, size: 0x8, addend: 0x0, symName: __ZNSt3__112basic_stringIcNS_11char_traitsIcEENS_9allocatorIcEEE13__get_pointerB8ue170006Ev, symObjAddr: 0x740C, symBinAddr: 0x10000A954, symSize: 0x54 }
  - { offsetInCU: 0x156DF, offset: 0x156DF, size: 0x8, addend: 0x0, symName: __ZNKSt3__112basic_stringIcNS_11char_traitsIcEENS_9allocatorIcEEE9__is_longB8ue170006Ev, symObjAddr: 0x7460, symBinAddr: 0x10000A9A8, symSize: 0x38 }
  - { offsetInCU: 0x15705, offset: 0x15705, size: 0x8, addend: 0x0, symName: __ZNSt3__112basic_stringIcNS_11char_traitsIcEENS_9allocatorIcEEE18__get_long_pointerB8ue170006Ev, symObjAddr: 0x7498, symBinAddr: 0x10000A9E0, symSize: 0x28 }
  - { offsetInCU: 0x1572B, offset: 0x1572B, size: 0x8, addend: 0x0, symName: __ZNSt3__112basic_stringIcNS_11char_traitsIcEENS_9allocatorIcEEE19__get_short_pointerB8ue170006Ev, symObjAddr: 0x74C0, symBinAddr: 0x10000AA08, symSize: 0x28 }
  - { offsetInCU: 0x15751, offset: 0x15751, size: 0x8, addend: 0x0, symName: __ZNKSt3__117__compressed_pairINS_12basic_stringIcNS_11char_traitsIcEENS_9allocatorIcEEE5__repES5_E5firstB8ue170006Ev, symObjAddr: 0x74E8, symBinAddr: 0x10000AA30, symSize: 0x24 }
  - { offsetInCU: 0x15777, offset: 0x15777, size: 0x8, addend: 0x0, symName: __ZNKSt3__122__compressed_pair_elemINS_12basic_stringIcNS_11char_traitsIcEENS_9allocatorIcEEE5__repELi0ELb0EE5__getB8ue170006Ev, symObjAddr: 0x750C, symBinAddr: 0x10000AA54, symSize: 0x14 }
  - { offsetInCU: 0x1579D, offset: 0x1579D, size: 0x8, addend: 0x0, symName: __ZNSt3__117__compressed_pairINS_12basic_stringIcNS_11char_traitsIcEENS_9allocatorIcEEE5__repES5_E5firstB8ue170006Ev, symObjAddr: 0x7520, symBinAddr: 0x10000AA68, symSize: 0x24 }
  - { offsetInCU: 0x157C3, offset: 0x157C3, size: 0x8, addend: 0x0, symName: __ZNSt3__122__compressed_pair_elemINS_12basic_stringIcNS_11char_traitsIcEENS_9allocatorIcEEE5__repELi0ELb0EE5__getB8ue170006Ev, symObjAddr: 0x7544, symBinAddr: 0x10000AA8C, symSize: 0x14 }
  - { offsetInCU: 0x157E9, offset: 0x157E9, size: 0x8, addend: 0x0, symName: __ZNSt3__114pointer_traitsIPcE10pointer_toB8ue170006ERc, symObjAddr: 0x7558, symBinAddr: 0x10000AAA0, symSize: 0x14 }
  - { offsetInCU: 0x1580C, offset: 0x1580C, size: 0x8, addend: 0x0, symName: __ZNSt3__119ostreambuf_iteratorIcNS_11char_traitsIcEEEC2B8ue170006ERNS_13basic_ostreamIcS2_EE, symObjAddr: 0x756C, symBinAddr: 0x10000AAB4, symSize: 0x54 }
  - { offsetInCU: 0x15844, offset: 0x15844, size: 0x8, addend: 0x0, symName: __ZNKSt3__19basic_iosIcNS_11char_traitsIcEEE5rdbufB8ue170006Ev, symObjAddr: 0x75C0, symBinAddr: 0x10000AB08, symSize: 0x24 }
  - { offsetInCU: 0x1586C, offset: 0x1586C, size: 0x8, addend: 0x0, symName: __ZNKSt3__18ios_base5rdbufB8ue170006Ev, symObjAddr: 0x75E4, symBinAddr: 0x10000AB2C, symSize: 0x18 }
  - { offsetInCU: 0x15892, offset: 0x15892, size: 0x8, addend: 0x0, symName: __ZNSt3__111char_traitsIcE11eq_int_typeB8ue170006Eii, symObjAddr: 0x75FC, symBinAddr: 0x10000AB44, symSize: 0x28 }
  - { offsetInCU: 0x158C5, offset: 0x158C5, size: 0x8, addend: 0x0, symName: __ZNSt3__111char_traitsIcE3eofB8ue170006Ev, symObjAddr: 0x7624, symBinAddr: 0x10000AB6C, symSize: 0x8 }
  - { offsetInCU: 0x158D9, offset: 0x158D9, size: 0x8, addend: 0x0, symName: __ZNKSt3__19basic_iosIcNS_11char_traitsIcEEE5widenB8ue170006Ec, symObjAddr: 0x762C, symBinAddr: 0x10000AB74, symSize: 0x84 }
  - { offsetInCU: 0x15942, offset: 0x15942, size: 0x8, addend: 0x0, symName: __ZNKSt3__15ctypeIcE5widenB8ue170006Ec, symObjAddr: 0x76DC, symBinAddr: 0x10000AC24, symSize: 0x38 }
  - { offsetInCU: 0x15977, offset: 0x15977, size: 0x8, addend: 0x0, symName: __ZNSt3__18ios_base8setstateB8ue170006Ej, symObjAddr: 0x7714, symBinAddr: 0x10000AC5C, symSize: 0x34 }
  - { offsetInCU: 0x159AE, offset: 0x159AE, size: 0x8, addend: 0x0, symName: __ZNKSt3__112basic_stringIcNS_11char_traitsIcEENS_9allocatorIcEEE4dataB8ue170006Ev, symObjAddr: 0x7748, symBinAddr: 0x10000AC90, symSize: 0x28 }
  - { offsetInCU: 0x159D4, offset: 0x159D4, size: 0x8, addend: 0x0, symName: __ZNKSt3__112basic_stringIcNS_11char_traitsIcEENS_9allocatorIcEEE4sizeB8ue170006Ev, symObjAddr: 0x7770, symBinAddr: 0x10000ACB8, symSize: 0x54 }
  - { offsetInCU: 0x159FA, offset: 0x159FA, size: 0x8, addend: 0x0, symName: __ZNKSt3__112basic_stringIcNS_11char_traitsIcEENS_9allocatorIcEEE13__get_pointerB8ue170006Ev, symObjAddr: 0x77D8, symBinAddr: 0x10000AD20, symSize: 0x54 }
  - { offsetInCU: 0x15A20, offset: 0x15A20, size: 0x8, addend: 0x0, symName: __ZNKSt3__112basic_stringIcNS_11char_traitsIcEENS_9allocatorIcEEE18__get_long_pointerB8ue170006Ev, symObjAddr: 0x782C, symBinAddr: 0x10000AD74, symSize: 0x28 }
  - { offsetInCU: 0x15A46, offset: 0x15A46, size: 0x8, addend: 0x0, symName: __ZNKSt3__112basic_stringIcNS_11char_traitsIcEENS_9allocatorIcEEE19__get_short_pointerB8ue170006Ev, symObjAddr: 0x7854, symBinAddr: 0x10000AD9C, symSize: 0x28 }
  - { offsetInCU: 0x15A6C, offset: 0x15A6C, size: 0x8, addend: 0x0, symName: __ZNSt3__114pointer_traitsIPKcE10pointer_toB8ue170006ERS1_, symObjAddr: 0x787C, symBinAddr: 0x10000ADC4, symSize: 0x14 }
  - { offsetInCU: 0x15A8F, offset: 0x15A8F, size: 0x8, addend: 0x0, symName: __ZNKSt3__112basic_stringIcNS_11char_traitsIcEENS_9allocatorIcEEE15__get_long_sizeB8ue170006Ev, symObjAddr: 0x7890, symBinAddr: 0x10000ADD8, symSize: 0x28 }
  - { offsetInCU: 0x15AB5, offset: 0x15AB5, size: 0x8, addend: 0x0, symName: __ZNKSt3__112basic_stringIcNS_11char_traitsIcEENS_9allocatorIcEEE16__get_short_sizeB8ue170006Ev, symObjAddr: 0x78B8, symBinAddr: 0x10000AE00, symSize: 0x34 }
  - { offsetInCU: 0x15ADB, offset: 0x15ADB, size: 0x8, addend: 0x0, symName: __ZNSt3__112basic_stringIcNS_11char_traitsIcEENS_9allocatorIcEEEC2B8ue170006Ev, symObjAddr: 0x78EC, symBinAddr: 0x10000AE34, symSize: 0x48 }
  - { offsetInCU: 0x15B05, offset: 0x15B05, size: 0x8, addend: 0x0, symName: __ZNSt3__112basic_stringIcNS_11char_traitsIcEENS_9allocatorIcEEE14__default_initB8ue170006Ev, symObjAddr: 0x7934, symBinAddr: 0x10000AE7C, symSize: 0x40 }
  - { offsetInCU: 0x15BB8, offset: 0x15BB8, size: 0x8, addend: 0x0, symName: __ZNKSt3__113basic_istreamIcNS_11char_traitsIcEEE6sentrycvbB8ue170006Ev, symObjAddr: 0x7974, symBinAddr: 0x10000AEBC, symSize: 0x1C }
  - { offsetInCU: 0x15BDE, offset: 0x15BDE, size: 0x8, addend: 0x0, symName: __ZNSt3__115basic_streambufIcNS_11char_traitsIcEEE6sbumpcB8ue170006Ev, symObjAddr: 0x7990, symBinAddr: 0x10000AED8, symSize: 0x78 }
  - { offsetInCU: 0x15C04, offset: 0x15C04, size: 0x8, addend: 0x0, symName: __ZNSt3__111char_traitsIcE12to_char_typeB8ue170006Ei, symObjAddr: 0x7A08, symBinAddr: 0x10000AF50, symSize: 0x18 }
  - { offsetInCU: 0x15C27, offset: 0x15C27, size: 0x8, addend: 0x0, symName: __ZNSt3__18ios_base18__setstate_nothrowB8ue170006Ej, symObjAddr: 0x7A20, symBinAddr: 0x10000AF68, symSize: 0x64 }
  - { offsetInCU: 0x15C5C, offset: 0x15C5C, size: 0x8, addend: 0x0, symName: __ZNKSt3__19basic_iosIcNS_11char_traitsIcEEE10exceptionsB8ue170006Ev, symObjAddr: 0x7A84, symBinAddr: 0x10000AFCC, symSize: 0x24 }
  - { offsetInCU: 0x15C82, offset: 0x15C82, size: 0x8, addend: 0x0, symName: __ZNSt3__111char_traitsIcE11to_int_typeB8ue170006Ec, symObjAddr: 0x7AA8, symBinAddr: 0x10000AFF0, symSize: 0x14 }
  - { offsetInCU: 0x15CA6, offset: 0x15CA6, size: 0x8, addend: 0x0, symName: __ZNKSt3__18ios_base10exceptionsB8ue170006Ev, symObjAddr: 0x7ABC, symBinAddr: 0x10000B004, symSize: 0x18 }
  - { offsetInCU: 0x15CCE, offset: 0x15CCE, size: 0x8, addend: 0x0, symName: __ZNKSt3__19basic_iosIcNS_11char_traitsIcEEE4failB8ue170006Ev, symObjAddr: 0x7AD4, symBinAddr: 0x10000B01C, symSize: 0x28 }
  - { offsetInCU: 0x15CF4, offset: 0x15CF4, size: 0x8, addend: 0x0, symName: __ZNKSt3__18ios_base4failB8ue170006Ev, symObjAddr: 0x7AFC, symBinAddr: 0x10000B044, symSize: 0x28 }
  - { offsetInCU: 0x15D1C, offset: 0x15D1C, size: 0x8, addend: 0x0, symName: __ZNSt3__112basic_stringIcNS_11char_traitsIcEENS_9allocatorIcEEE5clearB8ue170006Ev, symObjAddr: 0x7D58, symBinAddr: 0x10000B2A0, symSize: 0x78 }
  - { offsetInCU: 0x15D44, offset: 0x15D44, size: 0x8, addend: 0x0, symName: __ZNSt3__111char_traitsIcE2eqEcc, symObjAddr: 0x7DD0, symBinAddr: 0x10000B318, symSize: 0x28 }
  - { offsetInCU: 0x15D75, offset: 0x15D75, size: 0x8, addend: 0x0, symName: __ZNKSt3__112basic_stringIcNS_11char_traitsIcEENS_9allocatorIcEEE8max_sizeB8ue170006Ev, symObjAddr: 0x7DF8, symBinAddr: 0x10000B340, symSize: 0xAC }
  - { offsetInCU: 0x15DC7, offset: 0x15DC7, size: 0x8, addend: 0x0, symName: __ZNSt3__111char_traitsIcE6assignB8ue170006ERcRKc, symObjAddr: 0x7EA4, symBinAddr: 0x10000B3EC, symSize: 0x24 }
  - { offsetInCU: 0x15DF8, offset: 0x15DF8, size: 0x8, addend: 0x0, symName: __ZNSt3__112basic_stringIcNS_11char_traitsIcEENS_9allocatorIcEEE15__set_long_sizeB8ue170006Em, symObjAddr: 0x7EC8, symBinAddr: 0x10000B410, symSize: 0x38 }
  - { offsetInCU: 0x15E2D, offset: 0x15E2D, size: 0x8, addend: 0x0, symName: __ZNSt3__112basic_stringIcNS_11char_traitsIcEENS_9allocatorIcEEE16__set_short_sizeB8ue170006Em, symObjAddr: 0x7F00, symBinAddr: 0x10000B448, symSize: 0x78 }
  - { offsetInCU: 0x15E6C, offset: 0x15E6C, size: 0x8, addend: 0x0, symName: __ZNSt3__116allocator_traitsINS_9allocatorIcEEE8max_sizeB8ue170006IS2_vEEmRKS2_, symObjAddr: 0x7F78, symBinAddr: 0x10000B4C0, symSize: 0x24 }
  - { offsetInCU: 0x15E9A, offset: 0x15E9A, size: 0x8, addend: 0x0, symName: __ZNKSt3__112basic_stringIcNS_11char_traitsIcEENS_9allocatorIcEEE7__allocB8ue170006Ev, symObjAddr: 0x7F9C, symBinAddr: 0x10000B4E4, symSize: 0x24 }
  - { offsetInCU: 0x15EC0, offset: 0x15EC0, size: 0x8, addend: 0x0, symName: __ZNSt3__114numeric_limitsImE3maxB8ue170006Ev, symObjAddr: 0x7FC0, symBinAddr: 0x10000B508, symSize: 0x14 }
  - { offsetInCU: 0x15ED4, offset: 0x15ED4, size: 0x8, addend: 0x0, symName: __ZNKSt3__19allocatorIcE8max_sizeB8ue170006Ev, symObjAddr: 0x7FD4, symBinAddr: 0x10000B51C, symSize: 0x14 }
  - { offsetInCU: 0x15EFA, offset: 0x15EFA, size: 0x8, addend: 0x0, symName: __ZNKSt3__117__compressed_pairINS_12basic_stringIcNS_11char_traitsIcEENS_9allocatorIcEEE5__repES5_E6secondB8ue170006Ev, symObjAddr: 0x7FE8, symBinAddr: 0x10000B530, symSize: 0x24 }
  - { offsetInCU: 0x15F20, offset: 0x15F20, size: 0x8, addend: 0x0, symName: __ZNKSt3__122__compressed_pair_elemINS_9allocatorIcEELi1ELb1EE5__getB8ue170006Ev, symObjAddr: 0x800C, symBinAddr: 0x10000B554, symSize: 0x14 }
  - { offsetInCU: 0x15F46, offset: 0x15F46, size: 0x8, addend: 0x0, symName: __ZNSt3__123__libcpp_numeric_limitsImLb1EE3maxB8ue170006Ev, symObjAddr: 0x8020, symBinAddr: 0x10000B568, symSize: 0x8 }
  - { offsetInCU: 0x15F5A, offset: 0x15F5A, size: 0x8, addend: 0x0, symName: __ZNSt3__16vectorI10CoordinateNS_9allocatorIS1_EEEC2EmRKS1_, symObjAddr: 0x8028, symBinAddr: 0x10000B570, symSize: 0xDC }
  - { offsetInCU: 0x15FB9, offset: 0x15FB9, size: 0x8, addend: 0x0, symName: __ZNSt3__117__compressed_pairIP10CoordinateNS_9allocatorIS1_EEEC1B8ue170006IDnNS_18__default_init_tagEEEOT_OT0_, symObjAddr: 0x8104, symBinAddr: 0x10000B64C, symSize: 0x3C }
  - { offsetInCU: 0x16011, offset: 0x16011, size: 0x8, addend: 0x0, symName: __ZNSt3__16vectorI10CoordinateNS_9allocatorIS1_EEE16__destroy_vectorC1B8ue170006ERS4_, symObjAddr: 0x8180, symBinAddr: 0x10000B6C8, symSize: 0x34 }
  - { offsetInCU: 0x1604A, offset: 0x1604A, size: 0x8, addend: 0x0, symName: __ZNSt3__16vectorI10CoordinateNS_9allocatorIS1_EEE11__vallocateB8ue170006Em, symObjAddr: 0x81B4, symBinAddr: 0x10000B6FC, symSize: 0xB4 }
  - { offsetInCU: 0x1608E, offset: 0x1608E, size: 0x8, addend: 0x0, symName: __ZNSt3__16vectorI10CoordinateNS_9allocatorIS1_EEE18__construct_at_endEmRKS1_, symObjAddr: 0x8268, symBinAddr: 0x10000B7B0, symSize: 0xD0 }
  - { offsetInCU: 0x1610F, offset: 0x1610F, size: 0x8, addend: 0x0, symName: __ZNSt3__128__exception_guard_exceptionsINS_6vectorI10CoordinateNS_9allocatorIS2_EEE16__destroy_vectorEE10__completeB8ue170006Ev, symObjAddr: 0x8338, symBinAddr: 0x10000B880, symSize: 0x1C }
  - { offsetInCU: 0x16135, offset: 0x16135, size: 0x8, addend: 0x0, symName: __ZNSt3__128__exception_guard_exceptionsINS_6vectorI10CoordinateNS_9allocatorIS2_EEE16__destroy_vectorEED1B8ue170006Ev, symObjAddr: 0x8354, symBinAddr: 0x10000B89C, symSize: 0x2C }
  - { offsetInCU: 0x1615F, offset: 0x1615F, size: 0x8, addend: 0x0, symName: __ZNSt3__117__compressed_pairIP10CoordinateNS_9allocatorIS1_EEEC2B8ue170006IDnNS_18__default_init_tagEEEOT_OT0_, symObjAddr: 0x8380, symBinAddr: 0x10000B8C8, symSize: 0x40 }
  - { offsetInCU: 0x161B7, offset: 0x161B7, size: 0x8, addend: 0x0, symName: __ZNSt3__122__compressed_pair_elemIP10CoordinateLi0ELb0EEC2B8ue170006IDnvEEOT_, symObjAddr: 0x83C0, symBinAddr: 0x10000B908, symSize: 0x1C }
  - { offsetInCU: 0x161F9, offset: 0x161F9, size: 0x8, addend: 0x0, symName: __ZNSt3__122__compressed_pair_elemINS_9allocatorI10CoordinateEELi1ELb1EEC2B8ue170006ENS_18__default_init_tagE, symObjAddr: 0x83DC, symBinAddr: 0x10000B924, symSize: 0x2C }
  - { offsetInCU: 0x1622D, offset: 0x1622D, size: 0x8, addend: 0x0, symName: __ZNSt3__19allocatorI10CoordinateEC2B8ue170006Ev, symObjAddr: 0x8408, symBinAddr: 0x10000B950, symSize: 0x2C }
  - { offsetInCU: 0x16257, offset: 0x16257, size: 0x8, addend: 0x0, symName: __ZNSt3__116__non_trivial_ifILb1ENS_9allocatorI10CoordinateEEEC2B8ue170006Ev, symObjAddr: 0x8434, symBinAddr: 0x10000B97C, symSize: 0x14 }
  - { offsetInCU: 0x16281, offset: 0x16281, size: 0x8, addend: 0x0, symName: __ZNSt3__128__exception_guard_exceptionsINS_6vectorI10CoordinateNS_9allocatorIS2_EEE16__destroy_vectorEEC1B8ue170006ES6_, symObjAddr: 0x8448, symBinAddr: 0x10000B990, symSize: 0x34 }
  - { offsetInCU: 0x162B9, offset: 0x162B9, size: 0x8, addend: 0x0, symName: __ZNSt3__128__exception_guard_exceptionsINS_6vectorI10CoordinateNS_9allocatorIS2_EEE16__destroy_vectorEEC2B8ue170006ES6_, symObjAddr: 0x847C, symBinAddr: 0x10000B9C4, symSize: 0x24 }
  - { offsetInCU: 0x162F1, offset: 0x162F1, size: 0x8, addend: 0x0, symName: __ZNSt3__16vectorI10CoordinateNS_9allocatorIS1_EEE16__destroy_vectorC2B8ue170006ERS4_, symObjAddr: 0x84A0, symBinAddr: 0x10000B9E8, symSize: 0x20 }
  - { offsetInCU: 0x1632A, offset: 0x1632A, size: 0x8, addend: 0x0, symName: __ZNKSt3__16vectorI10CoordinateNS_9allocatorIS1_EEE8max_sizeEv, symObjAddr: 0x84C0, symBinAddr: 0x10000BA08, symSize: 0x60 }
  - { offsetInCU: 0x16352, offset: 0x16352, size: 0x8, addend: 0x0, symName: __ZNKSt3__16vectorI10CoordinateNS_9allocatorIS1_EEE20__throw_length_errorB8ue170006Ev, symObjAddr: 0x8520, symBinAddr: 0x10000BA68, symSize: 0x1C }
  - { offsetInCU: 0x16378, offset: 0x16378, size: 0x8, addend: 0x0, symName: __ZNSt3__16vectorI10CoordinateNS_9allocatorIS1_EEE7__allocB8ue170006Ev, symObjAddr: 0x857C, symBinAddr: 0x10000BAC4, symSize: 0x28 }
  - { offsetInCU: 0x1639E, offset: 0x1639E, size: 0x8, addend: 0x0, symName: __ZNSt3__16vectorI10CoordinateNS_9allocatorIS1_EEE9__end_capB8ue170006Ev, symObjAddr: 0x85A4, symBinAddr: 0x10000BAEC, symSize: 0x28 }
  - { offsetInCU: 0x163C4, offset: 0x163C4, size: 0x8, addend: 0x0, symName: __ZNKSt3__16vectorI10CoordinateNS_9allocatorIS1_EEE14__annotate_newB8ue170006Em, symObjAddr: 0x85CC, symBinAddr: 0x10000BB14, symSize: 0xC8 }
  - { offsetInCU: 0x16403, offset: 0x16403, size: 0x8, addend: 0x0, symName: __ZNSt3__116allocator_traitsINS_9allocatorI10CoordinateEEE8max_sizeB8ue170006IS3_vEEmRKS3_, symObjAddr: 0x86C0, symBinAddr: 0x10000BC08, symSize: 0x24 }
  - { offsetInCU: 0x16431, offset: 0x16431, size: 0x8, addend: 0x0, symName: __ZNKSt3__16vectorI10CoordinateNS_9allocatorIS1_EEE7__allocB8ue170006Ev, symObjAddr: 0x86E4, symBinAddr: 0x10000BC2C, symSize: 0x28 }
  - { offsetInCU: 0x16457, offset: 0x16457, size: 0x8, addend: 0x0, symName: __ZNSt3__114numeric_limitsIlE3maxB8ue170006Ev, symObjAddr: 0x870C, symBinAddr: 0x10000BC54, symSize: 0x14 }
  - { offsetInCU: 0x16475, offset: 0x16475, size: 0x8, addend: 0x0, symName: __ZNKSt3__16__lessIvvEclB8ue170006ImmEEbRKT_RKT0_, symObjAddr: 0x8774, symBinAddr: 0x10000BCBC, symSize: 0x34 }
  - { offsetInCU: 0x164C9, offset: 0x164C9, size: 0x8, addend: 0x0, symName: __ZNKSt3__19allocatorI10CoordinateE8max_sizeB8ue170006Ev, symObjAddr: 0x87A8, symBinAddr: 0x10000BCF0, symSize: 0x14 }
  - { offsetInCU: 0x164EF, offset: 0x164EF, size: 0x8, addend: 0x0, symName: __ZNKSt3__117__compressed_pairIP10CoordinateNS_9allocatorIS1_EEE6secondB8ue170006Ev, symObjAddr: 0x87BC, symBinAddr: 0x10000BD04, symSize: 0x24 }
  - { offsetInCU: 0x16515, offset: 0x16515, size: 0x8, addend: 0x0, symName: __ZNKSt3__122__compressed_pair_elemINS_9allocatorI10CoordinateEELi1ELb1EE5__getB8ue170006Ev, symObjAddr: 0x87E0, symBinAddr: 0x10000BD28, symSize: 0x14 }
  - { offsetInCU: 0x1653B, offset: 0x1653B, size: 0x8, addend: 0x0, symName: __ZNSt3__123__libcpp_numeric_limitsIlLb1EE3maxB8ue170006Ev, symObjAddr: 0x87F4, symBinAddr: 0x10000BD3C, symSize: 0x8 }
  - { offsetInCU: 0x1654F, offset: 0x1654F, size: 0x8, addend: 0x0, symName: __ZNSt12length_errorC1B8ue170006EPKc, symObjAddr: 0x8860, symBinAddr: 0x10000BDA8, symSize: 0x34 }
  - { offsetInCU: 0x16587, offset: 0x16587, size: 0x8, addend: 0x0, symName: __ZNSt12length_errorC2B8ue170006EPKc, symObjAddr: 0x8894, symBinAddr: 0x10000BDDC, symSize: 0x4C }
  - { offsetInCU: 0x165BF, offset: 0x165BF, size: 0x8, addend: 0x0, symName: __ZNSt3__19allocatorI10CoordinateE8allocateB8ue170006Em, symObjAddr: 0x88E0, symBinAddr: 0x10000BE28, symSize: 0x5C }
  - { offsetInCU: 0x165F3, offset: 0x165F3, size: 0x8, addend: 0x0, symName: __ZNSt3__117__compressed_pairIP10CoordinateNS_9allocatorIS1_EEE6secondB8ue170006Ev, symObjAddr: 0x8A20, symBinAddr: 0x10000BF68, symSize: 0x24 }
  - { offsetInCU: 0x16619, offset: 0x16619, size: 0x8, addend: 0x0, symName: __ZNSt3__122__compressed_pair_elemINS_9allocatorI10CoordinateEELi1ELb1EE5__getB8ue170006Ev, symObjAddr: 0x8A44, symBinAddr: 0x10000BF8C, symSize: 0x14 }
  - { offsetInCU: 0x1663F, offset: 0x1663F, size: 0x8, addend: 0x0, symName: __ZNSt3__117__compressed_pairIP10CoordinateNS_9allocatorIS1_EEE5firstB8ue170006Ev, symObjAddr: 0x8A58, symBinAddr: 0x10000BFA0, symSize: 0x24 }
  - { offsetInCU: 0x16665, offset: 0x16665, size: 0x8, addend: 0x0, symName: __ZNSt3__122__compressed_pair_elemIP10CoordinateLi0ELb0EE5__getB8ue170006Ev, symObjAddr: 0x8A7C, symBinAddr: 0x10000BFC4, symSize: 0x14 }
  - { offsetInCU: 0x1668B, offset: 0x1668B, size: 0x8, addend: 0x0, symName: __ZNKSt3__16vectorI10CoordinateNS_9allocatorIS1_EEE31__annotate_contiguous_containerB8ue170006EPKvS6_S6_S6_, symObjAddr: 0x8A90, symBinAddr: 0x10000BFD8, symSize: 0x20 }
  - { offsetInCU: 0x166DD, offset: 0x166DD, size: 0x8, addend: 0x0, symName: __ZNKSt3__16vectorI10CoordinateNS_9allocatorIS1_EEE4dataB8ue170006Ev, symObjAddr: 0x8AB0, symBinAddr: 0x10000BFF8, symSize: 0x28 }
  - { offsetInCU: 0x16703, offset: 0x16703, size: 0x8, addend: 0x0, symName: __ZNKSt3__16vectorI10CoordinateNS_9allocatorIS1_EEE8capacityB8ue170006Ev, symObjAddr: 0x8AD8, symBinAddr: 0x10000C020, symSize: 0x40 }
  - { offsetInCU: 0x16729, offset: 0x16729, size: 0x8, addend: 0x0, symName: __ZNKSt3__16vectorI10CoordinateNS_9allocatorIS1_EEE9__end_capB8ue170006Ev, symObjAddr: 0x8B2C, symBinAddr: 0x10000C074, symSize: 0x28 }
  - { offsetInCU: 0x1674F, offset: 0x1674F, size: 0x8, addend: 0x0, symName: __ZNKSt3__117__compressed_pairIP10CoordinateNS_9allocatorIS1_EEE5firstB8ue170006Ev, symObjAddr: 0x8B54, symBinAddr: 0x10000C09C, symSize: 0x24 }
  - { offsetInCU: 0x16775, offset: 0x16775, size: 0x8, addend: 0x0, symName: __ZNKSt3__122__compressed_pair_elemIP10CoordinateLi0ELb0EE5__getB8ue170006Ev, symObjAddr: 0x8B78, symBinAddr: 0x10000C0C0, symSize: 0x14 }
  - { offsetInCU: 0x167B4, offset: 0x167B4, size: 0x8, addend: 0x0, symName: __ZNSt3__16vectorI10CoordinateNS_9allocatorIS1_EEE21_ConstructTransactionC1B8ue170006ERS4_m, symObjAddr: 0x8B8C, symBinAddr: 0x10000C0D4, symSize: 0x3C }
  - { offsetInCU: 0x167FC, offset: 0x167FC, size: 0x8, addend: 0x0, symName: __ZNSt3__116allocator_traitsINS_9allocatorI10CoordinateEEE9constructB8ue170006IS2_JRKS2_EvEEvRS3_PT_DpOT0_, symObjAddr: 0x8BC8, symBinAddr: 0x10000C110, symSize: 0x34 }
  - { offsetInCU: 0x16853, offset: 0x16853, size: 0x8, addend: 0x0, symName: __ZNSt3__16vectorI10CoordinateNS_9allocatorIS1_EEE21_ConstructTransactionD1B8ue170006Ev, symObjAddr: 0x8BFC, symBinAddr: 0x10000C144, symSize: 0x2C }
  - { offsetInCU: 0x1687D, offset: 0x1687D, size: 0x8, addend: 0x0, symName: __ZNSt3__16vectorI10CoordinateNS_9allocatorIS1_EEE21_ConstructTransactionC2B8ue170006ERS4_m, symObjAddr: 0x8C28, symBinAddr: 0x10000C170, symSize: 0x4C }
  - { offsetInCU: 0x168C5, offset: 0x168C5, size: 0x8, addend: 0x0, symName: __ZNSt3__19allocatorI10CoordinateE9constructB8ue170006IS1_JRKS1_EEEvPT_DpOT0_, symObjAddr: 0x8C74, symBinAddr: 0x10000C1BC, symSize: 0x30 }
  - { offsetInCU: 0x1691B, offset: 0x1691B, size: 0x8, addend: 0x0, symName: __ZNSt3__16vectorI10CoordinateNS_9allocatorIS1_EEE21_ConstructTransactionD2B8ue170006Ev, symObjAddr: 0x8CA4, symBinAddr: 0x10000C1EC, symSize: 0x20 }
  - { offsetInCU: 0x16945, offset: 0x16945, size: 0x8, addend: 0x0, symName: __ZNSt3__128__exception_guard_exceptionsINS_6vectorI10CoordinateNS_9allocatorIS2_EEE16__destroy_vectorEED2B8ue170006Ev, symObjAddr: 0x8CC4, symBinAddr: 0x10000C20C, symSize: 0x50 }
  - { offsetInCU: 0x1696F, offset: 0x1696F, size: 0x8, addend: 0x0, symName: __ZNSt3__16vectorI10CoordinateNS_9allocatorIS1_EEE16__destroy_vectorclB8ue170006Ev, symObjAddr: 0x8D14, symBinAddr: 0x10000C25C, symSize: 0x90 }
  - { offsetInCU: 0x16995, offset: 0x16995, size: 0x8, addend: 0x0, symName: __ZNSt3__16vectorI10CoordinateNS_9allocatorIS1_EEE7__clearB8ue170006Ev, symObjAddr: 0x8DA4, symBinAddr: 0x10000C2EC, symSize: 0x28 }
  - { offsetInCU: 0x169BB, offset: 0x169BB, size: 0x8, addend: 0x0, symName: __ZNKSt3__16vectorI10CoordinateNS_9allocatorIS1_EEE17__annotate_deleteB8ue170006Ev, symObjAddr: 0x8DCC, symBinAddr: 0x10000C314, symSize: 0xD4 }
  - { offsetInCU: 0x169E1, offset: 0x169E1, size: 0x8, addend: 0x0, symName: __ZNSt3__116allocator_traitsINS_9allocatorI10CoordinateEEE10deallocateB8ue170006ERS3_PS2_m, symObjAddr: 0x8EA0, symBinAddr: 0x10000C3E8, symSize: 0x34 }
  - { offsetInCU: 0x16A23, offset: 0x16A23, size: 0x8, addend: 0x0, symName: __ZNSt3__16vectorI10CoordinateNS_9allocatorIS1_EEE22__base_destruct_at_endB8ue170006EPS1_, symObjAddr: 0x8ED4, symBinAddr: 0x10000C41C, symSize: 0x8C }
  - { offsetInCU: 0x16A67, offset: 0x16A67, size: 0x8, addend: 0x0, symName: __ZNSt3__116allocator_traitsINS_9allocatorI10CoordinateEEE7destroyB8ue170006IS2_vEEvRS3_PT_, symObjAddr: 0x8F60, symBinAddr: 0x10000C4A8, symSize: 0x2C }
  - { offsetInCU: 0x16AA4, offset: 0x16AA4, size: 0x8, addend: 0x0, symName: __ZNSt3__19allocatorI10CoordinateE7destroyB8ue170006EPS1_, symObjAddr: 0x8F8C, symBinAddr: 0x10000C4D4, symSize: 0x14 }
  - { offsetInCU: 0x16AD8, offset: 0x16AD8, size: 0x8, addend: 0x0, symName: __ZNKSt3__16vectorI10CoordinateNS_9allocatorIS1_EEE4sizeB8ue170006Ev, symObjAddr: 0x8FA0, symBinAddr: 0x10000C4E8, symSize: 0x28 }
  - { offsetInCU: 0x16AFE, offset: 0x16AFE, size: 0x8, addend: 0x0, symName: __ZNSt3__19allocatorI10CoordinateE10deallocateB8ue170006EPS1_m, symObjAddr: 0x8FC8, symBinAddr: 0x10000C510, symSize: 0x44 }
  - { offsetInCU: 0x16B40, offset: 0x16B40, size: 0x8, addend: 0x0, symName: __ZNSt3__16vectorI10CoordinateNS_9allocatorIS1_EEED2B8ue170006Ev, symObjAddr: 0x900C, symBinAddr: 0x10000C554, symSize: 0x40 }
  - { offsetInCU: 0x16B6A, offset: 0x16B6A, size: 0x8, addend: 0x0, symName: __ZNSt3__16vectorINS0_I10CoordinateNS_9allocatorIS1_EEEENS2_IS4_EEE8__appendEmRKS4_, symObjAddr: 0x904C, symBinAddr: 0x10000C594, symSize: 0x114 }
  - { offsetInCU: 0x16BD4, offset: 0x16BD4, size: 0x8, addend: 0x0, symName: __ZNSt3__16vectorINS0_I10CoordinateNS_9allocatorIS1_EEEENS2_IS4_EEE17__destruct_at_endB8ue170006EPS4_, symObjAddr: 0x9160, symBinAddr: 0x10000C6A8, symSize: 0x4C }
  - { offsetInCU: 0x16C18, offset: 0x16C18, size: 0x8, addend: 0x0, symName: __ZNSt3__16vectorINS0_I10CoordinateNS_9allocatorIS1_EEEENS2_IS4_EEE9__end_capB8ue170006Ev, symObjAddr: 0x91AC, symBinAddr: 0x10000C6F4, symSize: 0x28 }
  - { offsetInCU: 0x16C3E, offset: 0x16C3E, size: 0x8, addend: 0x0, symName: __ZNSt3__16vectorINS0_I10CoordinateNS_9allocatorIS1_EEEENS2_IS4_EEE18__construct_at_endEmRKS4_, symObjAddr: 0x91D4, symBinAddr: 0x10000C71C, symSize: 0xD0 }
  - { offsetInCU: 0x16CBF, offset: 0x16CBF, size: 0x8, addend: 0x0, symName: __ZNKSt3__16vectorINS0_I10CoordinateNS_9allocatorIS1_EEEENS2_IS4_EEE11__recommendB8ue170006Em, symObjAddr: 0x92A4, symBinAddr: 0x10000C7EC, symSize: 0xB4 }
  - { offsetInCU: 0x16D14, offset: 0x16D14, size: 0x8, addend: 0x0, symName: __ZNSt3__114__split_bufferINS_6vectorI10CoordinateNS_9allocatorIS2_EEEERNS3_IS5_EEEC1EmmS7_, symObjAddr: 0x9358, symBinAddr: 0x10000C8A0, symSize: 0x44 }
  - { offsetInCU: 0x16D6A, offset: 0x16D6A, size: 0x8, addend: 0x0, symName: __ZNSt3__114__split_bufferINS_6vectorI10CoordinateNS_9allocatorIS2_EEEERNS3_IS5_EEE18__construct_at_endEmRKS5_, symObjAddr: 0x939C, symBinAddr: 0x10000C8E4, symSize: 0xBC }
  - { offsetInCU: 0x16DBD, offset: 0x16DBD, size: 0x8, addend: 0x0, symName: __ZNSt3__114__split_bufferINS_6vectorI10CoordinateNS_9allocatorIS2_EEEERNS3_IS5_EEED1Ev, symObjAddr: 0x9568, symBinAddr: 0x10000CAB0, symSize: 0x2C }
  - { offsetInCU: 0x16DE9, offset: 0x16DE9, size: 0x8, addend: 0x0, symName: __ZNSt3__117__compressed_pairIPNS_6vectorI10CoordinateNS_9allocatorIS2_EEEENS3_IS5_EEE5firstB8ue170006Ev, symObjAddr: 0x9594, symBinAddr: 0x10000CADC, symSize: 0x24 }
  - { offsetInCU: 0x16E0F, offset: 0x16E0F, size: 0x8, addend: 0x0, symName: __ZNSt3__122__compressed_pair_elemIPNS_6vectorI10CoordinateNS_9allocatorIS2_EEEELi0ELb0EE5__getB8ue170006Ev, symObjAddr: 0x95B8, symBinAddr: 0x10000CB00, symSize: 0x14 }
  - { offsetInCU: 0x16E4E, offset: 0x16E4E, size: 0x8, addend: 0x0, symName: __ZNSt3__16vectorINS0_I10CoordinateNS_9allocatorIS1_EEEENS2_IS4_EEE21_ConstructTransactionC1B8ue170006ERS6_m, symObjAddr: 0x95CC, symBinAddr: 0x10000CB14, symSize: 0x3C }
  - { offsetInCU: 0x16E96, offset: 0x16E96, size: 0x8, addend: 0x0, symName: __ZNSt3__116allocator_traitsINS_9allocatorINS_6vectorI10CoordinateNS1_IS3_EEEEEEE9constructB8ue170006IS5_JRKS5_EvEEvRS6_PT_DpOT0_, symObjAddr: 0x9608, symBinAddr: 0x10000CB50, symSize: 0x34 }
  - { offsetInCU: 0x16EED, offset: 0x16EED, size: 0x8, addend: 0x0, symName: __ZNSt3__16vectorINS0_I10CoordinateNS_9allocatorIS1_EEEENS2_IS4_EEE21_ConstructTransactionD1B8ue170006Ev, symObjAddr: 0x963C, symBinAddr: 0x10000CB84, symSize: 0x2C }
  - { offsetInCU: 0x16F17, offset: 0x16F17, size: 0x8, addend: 0x0, symName: __ZNSt3__16vectorINS0_I10CoordinateNS_9allocatorIS1_EEEENS2_IS4_EEE21_ConstructTransactionC2B8ue170006ERS6_m, symObjAddr: 0x9668, symBinAddr: 0x10000CBB0, symSize: 0x4C }
  - { offsetInCU: 0x16F5F, offset: 0x16F5F, size: 0x8, addend: 0x0, symName: __ZNSt3__19allocatorINS_6vectorI10CoordinateNS0_IS2_EEEEE9constructB8ue170006IS4_JRKS4_EEEvPT_DpOT0_, symObjAddr: 0x96B4, symBinAddr: 0x10000CBFC, symSize: 0x30 }
  - { offsetInCU: 0x16FB5, offset: 0x16FB5, size: 0x8, addend: 0x0, symName: __ZNSt3__16vectorI10CoordinateNS_9allocatorIS1_EEEC1ERKS4_, symObjAddr: 0x96E4, symBinAddr: 0x10000CC2C, symSize: 0x34 }
  - { offsetInCU: 0x16FF0, offset: 0x16FF0, size: 0x8, addend: 0x0, symName: __ZNSt3__16vectorI10CoordinateNS_9allocatorIS1_EEEC2ERKS4_, symObjAddr: 0x9718, symBinAddr: 0x10000CC60, symSize: 0x94 }
  - { offsetInCU: 0x1702B, offset: 0x1702B, size: 0x8, addend: 0x0, symName: __ZNSt3__116allocator_traitsINS_9allocatorI10CoordinateEEE37select_on_container_copy_constructionB8ue170006IS3_vvEES3_RKS3_, symObjAddr: 0x97AC, symBinAddr: 0x10000CCF4, symSize: 0x10 }
  - { offsetInCU: 0x1705F, offset: 0x1705F, size: 0x8, addend: 0x0, symName: __ZNSt3__117__compressed_pairIP10CoordinateNS_9allocatorIS1_EEEC1B8ue170006IDnS4_EEOT_OT0_, symObjAddr: 0x97BC, symBinAddr: 0x10000CD04, symSize: 0x3C }
  - { offsetInCU: 0x170B7, offset: 0x170B7, size: 0x8, addend: 0x0, symName: __ZNSt3__16vectorI10CoordinateNS_9allocatorIS1_EEE16__init_with_sizeB8ue170006IPS1_S6_EEvT_T0_m, symObjAddr: 0x97F8, symBinAddr: 0x10000CD40, symSize: 0xB8 }
  - { offsetInCU: 0x1712B, offset: 0x1712B, size: 0x8, addend: 0x0, symName: __ZNSt3__117__compressed_pairIP10CoordinateNS_9allocatorIS1_EEEC2B8ue170006IDnS4_EEOT_OT0_, symObjAddr: 0x98B0, symBinAddr: 0x10000CDF8, symSize: 0x44 }
  - { offsetInCU: 0x17183, offset: 0x17183, size: 0x8, addend: 0x0, symName: __ZNSt3__122__compressed_pair_elemINS_9allocatorI10CoordinateEELi1ELb1EEC2B8ue170006IS3_vEEOT_, symObjAddr: 0x98F4, symBinAddr: 0x10000CE3C, symSize: 0x18 }
  - { offsetInCU: 0x171C5, offset: 0x171C5, size: 0x8, addend: 0x0, symName: __ZNSt3__16vectorI10CoordinateNS_9allocatorIS1_EEE18__construct_at_endIPS1_S6_EEvT_T0_m, symObjAddr: 0x990C, symBinAddr: 0x10000CE54, symSize: 0x8C }
  - { offsetInCU: 0x17259, offset: 0x17259, size: 0x8, addend: 0x0, symName: __ZNSt3__14pairIP10CoordinateS2_EC1B8ue170006IS2_S2_LPv0EEEOT_OT0_, symObjAddr: 0x9B48, symBinAddr: 0x10000D090, symSize: 0x3C }
  - { offsetInCU: 0x172B7, offset: 0x172B7, size: 0x8, addend: 0x0, symName: __ZNSt3__14pairIP10CoordinateS2_EC2B8ue170006IS2_S2_LPv0EEEOT_OT0_, symObjAddr: 0x9B84, symBinAddr: 0x10000D0CC, symSize: 0x34 }
  - { offsetInCU: 0x1731F, offset: 0x1731F, size: 0x8, addend: 0x0, symName: __ZNKSt3__114__copy_trivialclB8ue170006I10CoordinateS2_Li0EEENS_4pairIPT_PT0_EES5_S5_S7_, symObjAddr: 0x9D34, symBinAddr: 0x10000D27C, symSize: 0x48 }
  - { offsetInCU: 0x17387, offset: 0x17387, size: 0x8, addend: 0x0, symName: __ZNSt3__14pairIP10CoordinateS2_EC1B8ue170006IRS2_S2_LPv0EEEOT_OT0_, symObjAddr: 0x9ED0, symBinAddr: 0x10000D418, symSize: 0x3C }
  - { offsetInCU: 0x173E5, offset: 0x173E5, size: 0x8, addend: 0x0, symName: __ZNSt3__14pairIP10CoordinateS2_EC2B8ue170006IRS2_S2_LPv0EEEOT_OT0_, symObjAddr: 0x9F0C, symBinAddr: 0x10000D454, symSize: 0x34 }
  - { offsetInCU: 0x17443, offset: 0x17443, size: 0x8, addend: 0x0, symName: __ZNSt3__118__unwrap_iter_implIP10CoordinateLb1EE8__unwrapB8ue170006ES2_, symObjAddr: 0x9F40, symBinAddr: 0x10000D488, symSize: 0x24 }
  - { offsetInCU: 0x17466, offset: 0x17466, size: 0x8, addend: 0x0, symName: __ZNSt3__118__unwrap_iter_implIP10CoordinateLb1EE8__rewrapB8ue170006ES2_S2_, symObjAddr: 0x9F64, symBinAddr: 0x10000D4AC, symSize: 0x58 }
  - { offsetInCU: 0x17497, offset: 0x17497, size: 0x8, addend: 0x0, symName: __ZNSt3__16vectorINS0_I10CoordinateNS_9allocatorIS1_EEEENS2_IS4_EEE21_ConstructTransactionD2B8ue170006Ev, symObjAddr: 0x9FBC, symBinAddr: 0x10000D504, symSize: 0x20 }
  - { offsetInCU: 0x174C1, offset: 0x174C1, size: 0x8, addend: 0x0, symName: __ZNKSt3__16vectorINS0_I10CoordinateNS_9allocatorIS1_EEEENS2_IS4_EEE8max_sizeEv, symObjAddr: 0x9FDC, symBinAddr: 0x10000D524, symSize: 0x60 }
  - { offsetInCU: 0x174E9, offset: 0x174E9, size: 0x8, addend: 0x0, symName: __ZNKSt3__16vectorINS0_I10CoordinateNS_9allocatorIS1_EEEENS2_IS4_EEE20__throw_length_errorB8ue170006Ev, symObjAddr: 0xA03C, symBinAddr: 0x10000D584, symSize: 0x1C }
  - { offsetInCU: 0x17519, offset: 0x17519, size: 0x8, addend: 0x0, symName: __ZNSt3__116allocator_traitsINS_9allocatorINS_6vectorI10CoordinateNS1_IS3_EEEEEEE8max_sizeB8ue170006IS6_vEEmRKS6_, symObjAddr: 0xA084, symBinAddr: 0x10000D5CC, symSize: 0x24 }
  - { offsetInCU: 0x17547, offset: 0x17547, size: 0x8, addend: 0x0, symName: __ZNKSt3__16vectorINS0_I10CoordinateNS_9allocatorIS1_EEEENS2_IS4_EEE7__allocB8ue170006Ev, symObjAddr: 0xA0A8, symBinAddr: 0x10000D5F0, symSize: 0x28 }
  - { offsetInCU: 0x1756D, offset: 0x1756D, size: 0x8, addend: 0x0, symName: __ZNKSt3__19allocatorINS_6vectorI10CoordinateNS0_IS2_EEEEE8max_sizeB8ue170006Ev, symObjAddr: 0xA0D0, symBinAddr: 0x10000D618, symSize: 0x18 }
  - { offsetInCU: 0x17593, offset: 0x17593, size: 0x8, addend: 0x0, symName: __ZNKSt3__117__compressed_pairIPNS_6vectorI10CoordinateNS_9allocatorIS2_EEEENS3_IS5_EEE6secondB8ue170006Ev, symObjAddr: 0xA0E8, symBinAddr: 0x10000D630, symSize: 0x24 }
  - { offsetInCU: 0x175B9, offset: 0x175B9, size: 0x8, addend: 0x0, symName: __ZNKSt3__122__compressed_pair_elemINS_9allocatorINS_6vectorI10CoordinateNS1_IS3_EEEEEELi1ELb1EE5__getB8ue170006Ev, symObjAddr: 0xA10C, symBinAddr: 0x10000D654, symSize: 0x14 }
  - { offsetInCU: 0x175DF, offset: 0x175DF, size: 0x8, addend: 0x0, symName: __ZNSt3__114__split_bufferINS_6vectorI10CoordinateNS_9allocatorIS2_EEEERNS3_IS5_EEEC2EmmS7_, symObjAddr: 0xA174, symBinAddr: 0x10000D6BC, symSize: 0xE0 }
  - { offsetInCU: 0x17652, offset: 0x17652, size: 0x8, addend: 0x0, symName: __ZNSt3__117__compressed_pairIPNS_6vectorI10CoordinateNS_9allocatorIS2_EEEERNS3_IS5_EEEC1B8ue170006IDnS8_EEOT_OT0_, symObjAddr: 0xA254, symBinAddr: 0x10000D79C, symSize: 0x3C }
  - { offsetInCU: 0x176AA, offset: 0x176AA, size: 0x8, addend: 0x0, symName: __ZNSt3__114__split_bufferINS_6vectorI10CoordinateNS_9allocatorIS2_EEEERNS3_IS5_EEE7__allocB8ue170006Ev, symObjAddr: 0xA2D0, symBinAddr: 0x10000D818, symSize: 0x28 }
  - { offsetInCU: 0x176D0, offset: 0x176D0, size: 0x8, addend: 0x0, symName: __ZNSt3__114__split_bufferINS_6vectorI10CoordinateNS_9allocatorIS2_EEEERNS3_IS5_EEE9__end_capB8ue170006Ev, symObjAddr: 0xA2F8, symBinAddr: 0x10000D840, symSize: 0x28 }
  - { offsetInCU: 0x176F6, offset: 0x176F6, size: 0x8, addend: 0x0, symName: __ZNSt3__117__compressed_pairIPNS_6vectorI10CoordinateNS_9allocatorIS2_EEEERNS3_IS5_EEEC2B8ue170006IDnS8_EEOT_OT0_, symObjAddr: 0xA320, symBinAddr: 0x10000D868, symSize: 0x48 }
  - { offsetInCU: 0x1774E, offset: 0x1774E, size: 0x8, addend: 0x0, symName: __ZNSt3__122__compressed_pair_elemIRNS_9allocatorINS_6vectorI10CoordinateNS1_IS3_EEEEEELi1ELb0EEC2B8ue170006IS7_vEEOT_, symObjAddr: 0xA368, symBinAddr: 0x10000D8B0, symSize: 0x20 }
  - { offsetInCU: 0x17790, offset: 0x17790, size: 0x8, addend: 0x0, symName: __ZNSt3__19allocatorINS_6vectorI10CoordinateNS0_IS2_EEEEE8allocateB8ue170006Em, symObjAddr: 0xA388, symBinAddr: 0x10000D8D0, symSize: 0x5C }
  - { offsetInCU: 0x177C4, offset: 0x177C4, size: 0x8, addend: 0x0, symName: __ZNSt3__117__compressed_pairIPNS_6vectorI10CoordinateNS_9allocatorIS2_EEEERNS3_IS5_EEE6secondB8ue170006Ev, symObjAddr: 0xA3E4, symBinAddr: 0x10000D92C, symSize: 0x28 }
  - { offsetInCU: 0x177EA, offset: 0x177EA, size: 0x8, addend: 0x0, symName: __ZNSt3__122__compressed_pair_elemIRNS_9allocatorINS_6vectorI10CoordinateNS1_IS3_EEEEEELi1ELb0EE5__getB8ue170006Ev, symObjAddr: 0xA40C, symBinAddr: 0x10000D954, symSize: 0x18 }
  - { offsetInCU: 0x17810, offset: 0x17810, size: 0x8, addend: 0x0, symName: __ZNSt3__117__compressed_pairIPNS_6vectorI10CoordinateNS_9allocatorIS2_EEEERNS3_IS5_EEE5firstB8ue170006Ev, symObjAddr: 0xA424, symBinAddr: 0x10000D96C, symSize: 0x24 }
  - { offsetInCU: 0x17840, offset: 0x17840, size: 0x8, addend: 0x0, symName: __ZNSt3__114__split_bufferINS_6vectorI10CoordinateNS_9allocatorIS2_EEEERNS3_IS5_EEE21_ConstructTransactionC1B8ue170006EPPS5_m, symObjAddr: 0xA448, symBinAddr: 0x10000D990, symSize: 0x3C }
  - { offsetInCU: 0x17886, offset: 0x17886, size: 0x8, addend: 0x0, symName: __ZNSt3__114__split_bufferINS_6vectorI10CoordinateNS_9allocatorIS2_EEEERNS3_IS5_EEE21_ConstructTransactionD1B8ue170006Ev, symObjAddr: 0xA484, symBinAddr: 0x10000D9CC, symSize: 0x2C }
  - { offsetInCU: 0x178B0, offset: 0x178B0, size: 0x8, addend: 0x0, symName: __ZNSt3__114__split_bufferINS_6vectorI10CoordinateNS_9allocatorIS2_EEEERNS3_IS5_EEE21_ConstructTransactionC2B8ue170006EPPS5_m, symObjAddr: 0xA4B0, symBinAddr: 0x10000D9F8, symSize: 0x4C }
  - { offsetInCU: 0x178F6, offset: 0x178F6, size: 0x8, addend: 0x0, symName: __ZNSt3__114__split_bufferINS_6vectorI10CoordinateNS_9allocatorIS2_EEEERNS3_IS5_EEE21_ConstructTransactionD2B8ue170006Ev, symObjAddr: 0xA4FC, symBinAddr: 0x10000DA44, symSize: 0x20 }
  - { offsetInCU: 0x17920, offset: 0x17920, size: 0x8, addend: 0x0, symName: __ZNSt3__116reverse_iteratorIPNS_6vectorI10CoordinateNS_9allocatorIS2_EEEEEC1B8ue170006ES6_, symObjAddr: 0xA648, symBinAddr: 0x10000DB90, symSize: 0x34 }
  - { offsetInCU: 0x17958, offset: 0x17958, size: 0x8, addend: 0x0, symName: __ZNKSt3__116reverse_iteratorIPNS_6vectorI10CoordinateNS_9allocatorIS2_EEEEE4baseB8ue170006Ev, symObjAddr: 0xA67C, symBinAddr: 0x10000DBC4, symSize: 0x18 }
  - { offsetInCU: 0x1797E, offset: 0x1797E, size: 0x8, addend: 0x0, symName: __ZNKSt3__16vectorINS0_I10CoordinateNS_9allocatorIS1_EEEENS2_IS4_EEE14__annotate_newB8ue170006Em, symObjAddr: 0xA6D0, symBinAddr: 0x10000DC18, symSize: 0xC8 }
  - { offsetInCU: 0x179B3, offset: 0x179B3, size: 0x8, addend: 0x0, symName: __ZNSt3__129_AllocatorDestroyRangeReverseINS_9allocatorINS_6vectorI10CoordinateNS1_IS3_EEEEEENS_16reverse_iteratorIPS5_EEEC1B8ue170006ERS6_RS9_SC_, symObjAddr: 0xA7E4, symBinAddr: 0x10000DD2C, symSize: 0x44 }
  - { offsetInCU: 0x17A0A, offset: 0x17A0A, size: 0x8, addend: 0x0, symName: __ZNSt3__116allocator_traitsINS_9allocatorINS_6vectorI10CoordinateNS1_IS3_EEEEEEE9constructB8ue170006IS5_JS5_EvEEvRS6_PT_DpOT0_, symObjAddr: 0xA870, symBinAddr: 0x10000DDB8, symSize: 0x34 }
  - { offsetInCU: 0x17A61, offset: 0x17A61, size: 0x8, addend: 0x0, symName: __ZNKSt3__116reverse_iteratorIPNS_6vectorI10CoordinateNS_9allocatorIS2_EEEEEdeB8ue170006Ev, symObjAddr: 0xA8C8, symBinAddr: 0x10000DE10, symSize: 0x28 }
  - { offsetInCU: 0x17A95, offset: 0x17A95, size: 0x8, addend: 0x0, symName: __ZNSt3__116reverse_iteratorIPNS_6vectorI10CoordinateNS_9allocatorIS2_EEEEEppB8ue170006Ev, symObjAddr: 0xA8F0, symBinAddr: 0x10000DE38, symSize: 0x20 }
  - { offsetInCU: 0x17ABB, offset: 0x17ABB, size: 0x8, addend: 0x0, symName: __ZNSt3__128__exception_guard_exceptionsINS_29_AllocatorDestroyRangeReverseINS_9allocatorINS_6vectorI10CoordinateNS2_IS4_EEEEEENS_16reverse_iteratorIPS6_EEEEE10__completeB8ue170006Ev, symObjAddr: 0xA910, symBinAddr: 0x10000DE58, symSize: 0x1C }
  - { offsetInCU: 0x17AE1, offset: 0x17AE1, size: 0x8, addend: 0x0, symName: __ZNSt3__128__exception_guard_exceptionsINS_29_AllocatorDestroyRangeReverseINS_9allocatorINS_6vectorI10CoordinateNS2_IS4_EEEEEENS_16reverse_iteratorIPS6_EEEEED1B8ue170006Ev, symObjAddr: 0xA92C, symBinAddr: 0x10000DE74, symSize: 0x2C }
  - { offsetInCU: 0x17B0B, offset: 0x17B0B, size: 0x8, addend: 0x0, symName: __ZNSt3__128__exception_guard_exceptionsINS_29_AllocatorDestroyRangeReverseINS_9allocatorINS_6vectorI10CoordinateNS2_IS4_EEEEEENS_16reverse_iteratorIPS6_EEEEEC1B8ue170006ESB_, symObjAddr: 0xA958, symBinAddr: 0x10000DEA0, symSize: 0x34 }
  - { offsetInCU: 0x17B44, offset: 0x17B44, size: 0x8, addend: 0x0, symName: __ZNSt3__128__exception_guard_exceptionsINS_29_AllocatorDestroyRangeReverseINS_9allocatorINS_6vectorI10CoordinateNS2_IS4_EEEEEENS_16reverse_iteratorIPS6_EEEEEC2B8ue170006ESB_, symObjAddr: 0xA98C, symBinAddr: 0x10000DED4, symSize: 0x30 }
  - { offsetInCU: 0x17B7D, offset: 0x17B7D, size: 0x8, addend: 0x0, symName: __ZNSt3__129_AllocatorDestroyRangeReverseINS_9allocatorINS_6vectorI10CoordinateNS1_IS3_EEEEEENS_16reverse_iteratorIPS5_EEEC2B8ue170006ERS6_RS9_SC_, symObjAddr: 0xA9BC, symBinAddr: 0x10000DF04, symSize: 0x38 }
  - { offsetInCU: 0x17BD4, offset: 0x17BD4, size: 0x8, addend: 0x0, symName: __ZNSt3__19allocatorINS_6vectorI10CoordinateNS0_IS2_EEEEE9constructB8ue170006IS4_JS4_EEEvPT_DpOT0_, symObjAddr: 0xA9F4, symBinAddr: 0x10000DF3C, symSize: 0x30 }
  - { offsetInCU: 0x17C2A, offset: 0x17C2A, size: 0x8, addend: 0x0, symName: __ZNSt3__16vectorI10CoordinateNS_9allocatorIS1_EEEC1B8ue170006EOS4_, symObjAddr: 0xAA24, symBinAddr: 0x10000DF6C, symSize: 0x34 }
  - { offsetInCU: 0x17C65, offset: 0x17C65, size: 0x8, addend: 0x0, symName: __ZNSt3__16vectorI10CoordinateNS_9allocatorIS1_EEEC2B8ue170006EOS4_, symObjAddr: 0xAA58, symBinAddr: 0x10000DFA0, symSize: 0xC4 }
  - { offsetInCU: 0x17CA5, offset: 0x17CA5, size: 0x8, addend: 0x0, symName: __ZNSt3__119__to_address_helperINS_16reverse_iteratorIPNS_6vectorI10CoordinateNS_9allocatorIS3_EEEEEEvE6__callB8ue170006ERKS8_, symObjAddr: 0xAB1C, symBinAddr: 0x10000E064, symSize: 0x38 }
  - { offsetInCU: 0x17CC8, offset: 0x17CC8, size: 0x8, addend: 0x0, symName: __ZNKSt3__116reverse_iteratorIPNS_6vectorI10CoordinateNS_9allocatorIS2_EEEEEptB8ue170006Ev, symObjAddr: 0xAB54, symBinAddr: 0x10000E09C, symSize: 0x24 }
  - { offsetInCU: 0x17CEE, offset: 0x17CEE, size: 0x8, addend: 0x0, symName: __ZNSt3__128__exception_guard_exceptionsINS_29_AllocatorDestroyRangeReverseINS_9allocatorINS_6vectorI10CoordinateNS2_IS4_EEEEEENS_16reverse_iteratorIPS6_EEEEED2B8ue170006Ev, symObjAddr: 0xAB78, symBinAddr: 0x10000E0C0, symSize: 0x50 }
  - { offsetInCU: 0x17D18, offset: 0x17D18, size: 0x8, addend: 0x0, symName: __ZNKSt3__129_AllocatorDestroyRangeReverseINS_9allocatorINS_6vectorI10CoordinateNS1_IS3_EEEEEENS_16reverse_iteratorIPS5_EEEclB8ue170006Ev, symObjAddr: 0xABC8, symBinAddr: 0x10000E110, symSize: 0xB4 }
  - { offsetInCU: 0x17D3F, offset: 0x17D3F, size: 0x8, addend: 0x0, symName: __ZNSt3__116reverse_iteratorINS0_IPNS_6vectorI10CoordinateNS_9allocatorIS2_EEEEEEEC1B8ue170006ES7_, symObjAddr: 0xACEC, symBinAddr: 0x10000E234, symSize: 0x3C }
  - { offsetInCU: 0x17D77, offset: 0x17D77, size: 0x8, addend: 0x0, symName: __ZNSt3__116reverse_iteratorINS0_IPNS_6vectorI10CoordinateNS_9allocatorIS2_EEEEEEEppB8ue170006Ev, symObjAddr: 0xADAC, symBinAddr: 0x10000E2F4, symSize: 0x30 }
  - { offsetInCU: 0x17D9D, offset: 0x17D9D, size: 0x8, addend: 0x0, symName: __ZNKSt3__116reverse_iteratorINS0_IPNS_6vectorI10CoordinateNS_9allocatorIS2_EEEEEEE4baseB8ue170006Ev, symObjAddr: 0xADDC, symBinAddr: 0x10000E324, symSize: 0x24 }
  - { offsetInCU: 0x17DC8, offset: 0x17DC8, size: 0x8, addend: 0x0, symName: __ZNSt3__119__to_address_helperINS_16reverse_iteratorINS1_IPNS_6vectorI10CoordinateNS_9allocatorIS3_EEEEEEEEvE6__callB8ue170006ERKS9_, symObjAddr: 0xAE00, symBinAddr: 0x10000E348, symSize: 0x38 }
  - { offsetInCU: 0x17DEB, offset: 0x17DEB, size: 0x8, addend: 0x0, symName: __ZNKSt3__116reverse_iteratorINS0_IPNS_6vectorI10CoordinateNS_9allocatorIS2_EEEEEEEptB8ue170006Ev, symObjAddr: 0xAE38, symBinAddr: 0x10000E380, symSize: 0x24 }
  - { offsetInCU: 0x17E11, offset: 0x17E11, size: 0x8, addend: 0x0, symName: __ZNKSt3__116reverse_iteratorINS0_IPNS_6vectorI10CoordinateNS_9allocatorIS2_EEEEEEEdeB8ue170006Ev, symObjAddr: 0xAE5C, symBinAddr: 0x10000E3A4, symSize: 0x34 }
  - { offsetInCU: 0x17E45, offset: 0x17E45, size: 0x8, addend: 0x0, symName: __ZNSt3__116reverse_iteratorIPNS_6vectorI10CoordinateNS_9allocatorIS2_EEEEEmmB8ue170006Ev, symObjAddr: 0xAE90, symBinAddr: 0x10000E3D8, symSize: 0x20 }
  - { offsetInCU: 0x17E6B, offset: 0x17E6B, size: 0x8, addend: 0x0, symName: __ZNSt3__116reverse_iteratorINS0_IPNS_6vectorI10CoordinateNS_9allocatorIS2_EEEEEEEC2B8ue170006ES7_, symObjAddr: 0xAEB0, symBinAddr: 0x10000E3F8, symSize: 0x2C }
  - { offsetInCU: 0x17EA3, offset: 0x17EA3, size: 0x8, addend: 0x0, symName: __ZNSt3__116reverse_iteratorIPNS_6vectorI10CoordinateNS_9allocatorIS2_EEEEEC2B8ue170006ES6_, symObjAddr: 0xAEDC, symBinAddr: 0x10000E424, symSize: 0x28 }
  - { offsetInCU: 0x17EDB, offset: 0x17EDB, size: 0x8, addend: 0x0, symName: __ZNSt3__114__split_bufferINS_6vectorI10CoordinateNS_9allocatorIS2_EEEERNS3_IS5_EEED2Ev, symObjAddr: 0xAF04, symBinAddr: 0x10000E44C, symSize: 0x8C }
  - { offsetInCU: 0x17F07, offset: 0x17F07, size: 0x8, addend: 0x0, symName: __ZNSt3__114__split_bufferINS_6vectorI10CoordinateNS_9allocatorIS2_EEEERNS3_IS5_EEE5clearB8ue170006Ev, symObjAddr: 0xAF90, symBinAddr: 0x10000E4D8, symSize: 0x28 }
  - { offsetInCU: 0x17F2D, offset: 0x17F2D, size: 0x8, addend: 0x0, symName: __ZNKSt3__114__split_bufferINS_6vectorI10CoordinateNS_9allocatorIS2_EEEERNS3_IS5_EEE8capacityB8ue170006Ev, symObjAddr: 0xAFB8, symBinAddr: 0x10000E500, symSize: 0x40 }
  - { offsetInCU: 0x17F53, offset: 0x17F53, size: 0x8, addend: 0x0, symName: __ZNSt3__114__split_bufferINS_6vectorI10CoordinateNS_9allocatorIS2_EEEERNS3_IS5_EEE17__destruct_at_endB8ue170006EPS5_, symObjAddr: 0xAFF8, symBinAddr: 0x10000E540, symSize: 0x2C }
  - { offsetInCU: 0x17F87, offset: 0x17F87, size: 0x8, addend: 0x0, symName: __ZNSt3__114__split_bufferINS_6vectorI10CoordinateNS_9allocatorIS2_EEEERNS3_IS5_EEE17__destruct_at_endB8ue170006EPS5_NS_17integral_constantIbLb0EEE, symObjAddr: 0xB024, symBinAddr: 0x10000E56C, symSize: 0x80 }
  - { offsetInCU: 0x17FC7, offset: 0x17FC7, size: 0x8, addend: 0x0, symName: __ZNKSt3__114__split_bufferINS_6vectorI10CoordinateNS_9allocatorIS2_EEEERNS3_IS5_EEE9__end_capB8ue170006Ev, symObjAddr: 0xB0A4, symBinAddr: 0x10000E5EC, symSize: 0x28 }
  - { offsetInCU: 0x17FED, offset: 0x17FED, size: 0x8, addend: 0x0, symName: __ZNKSt3__117__compressed_pairIPNS_6vectorI10CoordinateNS_9allocatorIS2_EEEERNS3_IS5_EEE5firstB8ue170006Ev, symObjAddr: 0xB0CC, symBinAddr: 0x10000E614, symSize: 0x24 }
  - { offsetInCU: 0x18013, offset: 0x18013, size: 0x8, addend: 0x0, symName: __ZNKSt3__16vectorINS0_I10CoordinateNS_9allocatorIS1_EEEENS2_IS4_EEE17__annotate_shrinkB8ue170006Em, symObjAddr: 0xB0F0, symBinAddr: 0x10000E638, symSize: 0xD0 }
  - { offsetInCU: 0x18048, offset: 0x18048, size: 0x8, addend: 0x0, symName: __ZNKSt3__15dequeINS_4pairImmEENS_9allocatorIS2_EEE12__back_spareB8ue170006Ev, symObjAddr: 0xB1C0, symBinAddr: 0x10000E708, symSize: 0x54 }
  - { offsetInCU: 0x1806E, offset: 0x1806E, size: 0x8, addend: 0x0, symName: __ZNSt3__15dequeINS_4pairImmEENS_9allocatorIS2_EEE19__add_back_capacityEv, symObjAddr: 0xB214, symBinAddr: 0x10000E75C, symSize: 0x34C }
  - { offsetInCU: 0x18123, offset: 0x18123, size: 0x8, addend: 0x0, symName: __ZNKSt3__15dequeINS_4pairImmEENS_9allocatorIS2_EEE24__annotate_increase_backB8ue170006Em, symObjAddr: 0xB560, symBinAddr: 0x10000EAA8, symSize: 0x7C }
  - { offsetInCU: 0x18158, offset: 0x18158, size: 0x8, addend: 0x0, symName: __ZNSt3__116allocator_traitsINS_9allocatorINS_4pairImmEEEEE9constructB8ue170006IS3_JRKS3_EvEEvRS4_PT_DpOT0_, symObjAddr: 0xB5DC, symBinAddr: 0x10000EB24, symSize: 0x34 }
  - { offsetInCU: 0x181AF, offset: 0x181AF, size: 0x8, addend: 0x0, symName: __ZNKSt3__15dequeINS_4pairImmEENS_9allocatorIS2_EEE10__capacityB8ue170006Ev, symObjAddr: 0xB610, symBinAddr: 0x10000EB58, symSize: 0x60 }
  - { offsetInCU: 0x181D5, offset: 0x181D5, size: 0x8, addend: 0x0, symName: __ZNKSt3__15dequeINS_4pairImmEENS_9allocatorIS2_EEE13__front_spareB8ue170006Ev, symObjAddr: 0xB670, symBinAddr: 0x10000EBB8, symSize: 0x18 }
  - { offsetInCU: 0x181FB, offset: 0x181FB, size: 0x8, addend: 0x0, symName: __ZNSt3__114__split_bufferIPNS_4pairImmEENS_9allocatorIS3_EEE9push_backB8ue170006ERKS3_, symObjAddr: 0xB688, symBinAddr: 0x10000EBD0, symSize: 0x260 }
  - { offsetInCU: 0x18273, offset: 0x18273, size: 0x8, addend: 0x0, symName: __ZNKSt3__114__split_bufferIPNS_4pairImmEENS_9allocatorIS3_EEE12__back_spareB8ue170006Ev, symObjAddr: 0xB8E8, symBinAddr: 0x10000EE30, symSize: 0x40 }
  - { offsetInCU: 0x18299, offset: 0x18299, size: 0x8, addend: 0x0, symName: __ZNSt3__114__split_bufferIPNS_4pairImmEENS_9allocatorIS3_EEE9push_backEOS3_, symObjAddr: 0xB928, symBinAddr: 0x10000EE70, symSize: 0x260 }
  - { offsetInCU: 0x18311, offset: 0x18311, size: 0x8, addend: 0x0, symName: __ZNSt3__116allocator_traitsINS_9allocatorINS_4pairImmEEEEE8allocateB8ue170006ERS4_m, symObjAddr: 0xBB88, symBinAddr: 0x10000F0D0, symSize: 0x2C }
  - { offsetInCU: 0x18344, offset: 0x18344, size: 0x8, addend: 0x0, symName: __ZNSt3__114__split_bufferIPNS_4pairImmEENS_9allocatorIS3_EEE10push_frontEOS3_, symObjAddr: 0xBBB4, symBinAddr: 0x10000F0FC, symSize: 0x25C }
  - { offsetInCU: 0x183BC, offset: 0x183BC, size: 0x8, addend: 0x0, symName: __ZNSt3__114__split_bufferIPNS_4pairImmEERNS_9allocatorIS3_EEEC1EmmS6_, symObjAddr: 0xBE10, symBinAddr: 0x10000F358, symSize: 0x44 }
  - { offsetInCU: 0x18417, offset: 0x18417, size: 0x8, addend: 0x0, symName: __ZNSt3__122__allocator_destructorINS_9allocatorINS_4pairImmEEEEEC1B8ue170006ERS4_m, symObjAddr: 0xBE54, symBinAddr: 0x10000F39C, symSize: 0x3C }
  - { offsetInCU: 0x184C6, offset: 0x184C6, size: 0x8, addend: 0x0, symName: __ZNSt3__110unique_ptrIPNS_4pairImmEENS_22__allocator_destructorINS_9allocatorIS2_EEEEEC1B8ue170006ILb1EvEES3_NS_16__dependent_typeINS_27__unique_ptr_deleter_sfinaeIS7_EEXT_EE20__good_rval_ref_typeE, symObjAddr: 0xBE90, symBinAddr: 0x10000F3D8, symSize: 0x3C }
  - { offsetInCU: 0x18517, offset: 0x18517, size: 0x8, addend: 0x0, symName: __ZNSt3__114__split_bufferIPNS_4pairImmEERNS_9allocatorIS3_EEE9push_backEOS3_, symObjAddr: 0xBECC, symBinAddr: 0x10000F414, symSize: 0x260 }
  - { offsetInCU: 0x1858F, offset: 0x1858F, size: 0x8, addend: 0x0, symName: __ZNKSt3__110unique_ptrIPNS_4pairImmEENS_22__allocator_destructorINS_9allocatorIS2_EEEEE3getB8ue170006Ev, symObjAddr: 0xC12C, symBinAddr: 0x10000F674, symSize: 0x28 }
  - { offsetInCU: 0x185B5, offset: 0x185B5, size: 0x8, addend: 0x0, symName: __ZNSt3__110unique_ptrIPNS_4pairImmEENS_22__allocator_destructorINS_9allocatorIS2_EEEEE7releaseB8ue170006Ev, symObjAddr: 0xC154, symBinAddr: 0x10000F69C, symSize: 0x44 }
  - { offsetInCU: 0x185EA, offset: 0x185EA, size: 0x8, addend: 0x0, symName: __ZNSt3__114__split_bufferIPNS_4pairImmEERNS_9allocatorIS3_EEE10push_frontERKS3_, symObjAddr: 0xC198, symBinAddr: 0x10000F6E0, symSize: 0x25C }
  - { offsetInCU: 0x18662, offset: 0x18662, size: 0x8, addend: 0x0, symName: __ZNSt3__114__split_bufferIPNS_4pairImmEENS_9allocatorIS3_EEE9__end_capB8ue170006Ev, symObjAddr: 0xC430, symBinAddr: 0x10000F978, symSize: 0x28 }
  - { offsetInCU: 0x18688, offset: 0x18688, size: 0x8, addend: 0x0, symName: __ZNSt3__114__split_bufferIPNS_4pairImmEERNS_9allocatorIS3_EEE9__end_capB8ue170006Ev, symObjAddr: 0xC458, symBinAddr: 0x10000F9A0, symSize: 0x28 }
  - { offsetInCU: 0x186AE, offset: 0x186AE, size: 0x8, addend: 0x0, symName: __ZNSt3__110unique_ptrIPNS_4pairImmEENS_22__allocator_destructorINS_9allocatorIS2_EEEEED1B8ue170006Ev, symObjAddr: 0xC480, symBinAddr: 0x10000F9C8, symSize: 0x2C }
  - { offsetInCU: 0x186D8, offset: 0x186D8, size: 0x8, addend: 0x0, symName: __ZNSt3__114__split_bufferIPNS_4pairImmEERNS_9allocatorIS3_EEED1Ev, symObjAddr: 0xC4AC, symBinAddr: 0x10000F9F4, symSize: 0x2C }
  - { offsetInCU: 0x18704, offset: 0x18704, size: 0x8, addend: 0x0, symName: __ZNSt3__114__split_bufferIPNS_4pairImmEERNS_9allocatorIS3_EEE18__construct_at_endINS_13move_iteratorIPS3_EEEENS_9enable_ifIXsr31__has_forward_iterator_categoryIT_EE5valueEvE4typeESD_SD_, symObjAddr: 0xC518, symBinAddr: 0x10000FA60, symSize: 0x60 }
  - { offsetInCU: 0x18751, offset: 0x18751, size: 0x8, addend: 0x0, symName: __ZNSt3__113move_iteratorIPPNS_4pairImmEEEC1B8ue170006ES4_, symObjAddr: 0xC578, symBinAddr: 0x10000FAC0, symSize: 0x34 }
  - { offsetInCU: 0x18789, offset: 0x18789, size: 0x8, addend: 0x0, symName: __ZNSt3__116allocator_traitsINS_9allocatorIPNS_4pairImmEEEEE9constructB8ue170006IS4_JRKS4_EvEEvRS5_PT_DpOT0_, symObjAddr: 0xC5AC, symBinAddr: 0x10000FAF4, symSize: 0x34 }
  - { offsetInCU: 0x18803, offset: 0x18803, size: 0x8, addend: 0x0, symName: __ZNKSt3__114__move_trivialclB8ue170006IPNS_4pairImmEES4_Li0EEENS2_IPT_PT0_EES6_S6_S8_, symObjAddr: 0xC77C, symBinAddr: 0x10000FCC4, symSize: 0x48 }
  - { offsetInCU: 0x18870, offset: 0x18870, size: 0x8, addend: 0x0, symName: __ZNSt3__14pairIPPNS0_ImmEES3_EC1B8ue170006IRS3_S3_LPv0EEEOT_OT0_, symObjAddr: 0xC9A4, symBinAddr: 0x10000FEEC, symSize: 0x3C }
  - { offsetInCU: 0x188CE, offset: 0x188CE, size: 0x8, addend: 0x0, symName: __ZNSt3__14pairIPPNS0_ImmEES3_EC2B8ue170006IRS3_S3_LPv0EEEOT_OT0_, symObjAddr: 0xC9E0, symBinAddr: 0x10000FF28, symSize: 0x34 }
  - { offsetInCU: 0x1892C, offset: 0x1892C, size: 0x8, addend: 0x0, symName: __ZNSt3__118__unwrap_iter_implIPPNS_4pairImmEELb1EE8__unwrapB8ue170006ES4_, symObjAddr: 0xCA14, symBinAddr: 0x10000FF5C, symSize: 0x24 }
  - { offsetInCU: 0x1894F, offset: 0x1894F, size: 0x8, addend: 0x0, symName: __ZNSt3__14pairIPPNS0_ImmEES3_EC1B8ue170006IS3_S3_LPv0EEEOT_OT0_, symObjAddr: 0xCA38, symBinAddr: 0x10000FF80, symSize: 0x3C }
  - { offsetInCU: 0x189AD, offset: 0x189AD, size: 0x8, addend: 0x0, symName: __ZNSt3__14pairIPPNS0_ImmEES3_EC2B8ue170006IS3_S3_LPv0EEEOT_OT0_, symObjAddr: 0xCA74, symBinAddr: 0x10000FFBC, symSize: 0x34 }
  - { offsetInCU: 0x18A0B, offset: 0x18A0B, size: 0x8, addend: 0x0, symName: __ZNSt3__118__unwrap_iter_implIPPNS_4pairImmEELb1EE8__rewrapB8ue170006ES4_S4_, symObjAddr: 0xCAA8, symBinAddr: 0x10000FFF0, symSize: 0x50 }
  - { offsetInCU: 0x18A3C, offset: 0x18A3C, size: 0x8, addend: 0x0, symName: __ZNSt3__114__split_bufferIPNS_4pairImmEERNS_9allocatorIS3_EEE28__construct_at_end_with_sizeINS_13move_iteratorIPS3_EEEEvT_m, symObjAddr: 0xCAF8, symBinAddr: 0x100010040, symSize: 0xDC }
  - { offsetInCU: 0x18AA2, offset: 0x18AA2, size: 0x8, addend: 0x0, symName: __ZNSt3__114__split_bufferIPNS_4pairImmEERNS_9allocatorIS3_EEE21_ConstructTransactionC1B8ue170006EPPS3_m, symObjAddr: 0xCC10, symBinAddr: 0x100010158, symSize: 0x3C }
  - { offsetInCU: 0x18AE8, offset: 0x18AE8, size: 0x8, addend: 0x0, symName: __ZNSt3__116allocator_traitsINS_9allocatorIPNS_4pairImmEEEEE9constructB8ue170006IS4_JS4_EvEEvRS5_PT_DpOT0_, symObjAddr: 0xCC4C, symBinAddr: 0x100010194, symSize: 0x34 }
  - { offsetInCU: 0x18B3F, offset: 0x18B3F, size: 0x8, addend: 0x0, symName: __ZNSt3__114__split_bufferIPNS_4pairImmEERNS_9allocatorIS3_EEE7__allocB8ue170006Ev, symObjAddr: 0xCC80, symBinAddr: 0x1000101C8, symSize: 0x28 }
  - { offsetInCU: 0x18B65, offset: 0x18B65, size: 0x8, addend: 0x0, symName: __ZNKSt3__113move_iteratorIPPNS_4pairImmEEEdeB8ue170006Ev, symObjAddr: 0xCCA8, symBinAddr: 0x1000101F0, symSize: 0x18 }
  - { offsetInCU: 0x18B8B, offset: 0x18B8B, size: 0x8, addend: 0x0, symName: __ZNSt3__113move_iteratorIPPNS_4pairImmEEEppB8ue170006Ev, symObjAddr: 0xCCC0, symBinAddr: 0x100010208, symSize: 0x20 }
  - { offsetInCU: 0x18BB1, offset: 0x18BB1, size: 0x8, addend: 0x0, symName: __ZNSt3__114__split_bufferIPNS_4pairImmEERNS_9allocatorIS3_EEE21_ConstructTransactionD1B8ue170006Ev, symObjAddr: 0xCCE0, symBinAddr: 0x100010228, symSize: 0x2C }
  - { offsetInCU: 0x18BDB, offset: 0x18BDB, size: 0x8, addend: 0x0, symName: __ZNSt3__114__split_bufferIPNS_4pairImmEERNS_9allocatorIS3_EEE21_ConstructTransactionC2B8ue170006EPPS3_m, symObjAddr: 0xCD0C, symBinAddr: 0x100010254, symSize: 0x44 }
  - { offsetInCU: 0x18C21, offset: 0x18C21, size: 0x8, addend: 0x0, symName: __ZNSt3__19allocatorIPNS_4pairImmEEE9constructB8ue170006IS3_JS3_EEEvPT_DpOT0_, symObjAddr: 0xCD50, symBinAddr: 0x100010298, symSize: 0x28 }
  - { offsetInCU: 0x18C77, offset: 0x18C77, size: 0x8, addend: 0x0, symName: __ZNSt3__117__compressed_pairIPPNS_4pairImmEERNS_9allocatorIS3_EEE6secondB8ue170006Ev, symObjAddr: 0xCD78, symBinAddr: 0x1000102C0, symSize: 0x28 }
  - { offsetInCU: 0x18C9D, offset: 0x18C9D, size: 0x8, addend: 0x0, symName: __ZNSt3__122__compressed_pair_elemIRNS_9allocatorIPNS_4pairImmEEEELi1ELb0EE5__getB8ue170006Ev, symObjAddr: 0xCDA0, symBinAddr: 0x1000102E8, symSize: 0x18 }
  - { offsetInCU: 0x18CC3, offset: 0x18CC3, size: 0x8, addend: 0x0, symName: __ZNSt3__114__split_bufferIPNS_4pairImmEERNS_9allocatorIS3_EEE21_ConstructTransactionD2B8ue170006Ev, symObjAddr: 0xCDB8, symBinAddr: 0x100010300, symSize: 0x20 }
  - { offsetInCU: 0x18CED, offset: 0x18CED, size: 0x8, addend: 0x0, symName: __ZNKSt3__113move_iteratorIPPNS_4pairImmEEE4baseB8ue170006Ev, symObjAddr: 0xCE50, symBinAddr: 0x100010398, symSize: 0x18 }
  - { offsetInCU: 0x18D13, offset: 0x18D13, size: 0x8, addend: 0x0, symName: __ZNSt3__113move_iteratorIPPNS_4pairImmEEEC2B8ue170006ES4_, symObjAddr: 0xCE68, symBinAddr: 0x1000103B0, symSize: 0x20 }
  - { offsetInCU: 0x18D4B, offset: 0x18D4B, size: 0x8, addend: 0x0, symName: __ZNSt3__19allocatorIPNS_4pairImmEEE9constructB8ue170006IS3_JRKS3_EEEvPT_DpOT0_, symObjAddr: 0xCE88, symBinAddr: 0x1000103D0, symSize: 0x28 }
  - { offsetInCU: 0x18DA1, offset: 0x18DA1, size: 0x8, addend: 0x0, symName: __ZNSt3__19allocatorINS_4pairImmEEE8allocateB8ue170006Em, symObjAddr: 0xCEB0, symBinAddr: 0x1000103F8, symSize: 0x58 }
  - { offsetInCU: 0x18DDF, offset: 0x18DDF, size: 0x8, addend: 0x0, symName: __ZNSt3__116allocator_traitsINS_9allocatorINS_4pairImmEEEEE8max_sizeB8ue170006IS4_vEEmRKS4_, symObjAddr: 0xCF08, symBinAddr: 0x100010450, symSize: 0x24 }
  - { offsetInCU: 0x18E0D, offset: 0x18E0D, size: 0x8, addend: 0x0, symName: __ZNKSt3__19allocatorINS_4pairImmEEE8max_sizeB8ue170006Ev, symObjAddr: 0xCF2C, symBinAddr: 0x100010474, symSize: 0x14 }
  - { offsetInCU: 0x18E3D, offset: 0x18E3D, size: 0x8, addend: 0x0, symName: __ZNKSt3__123__move_backward_trivialclB8ue170006IPNS_4pairImmEES4_Li0EEENS2_IPT_PT0_EES6_S6_S8_, symObjAddr: 0xD0BC, symBinAddr: 0x100010604, symSize: 0x48 }
  - { offsetInCU: 0x18EA5, offset: 0x18EA5, size: 0x8, addend: 0x0, symName: __ZNSt3__14pairIPPNS0_ImmEES3_EC1B8ue170006IRS3_S6_LPv0EEEOT_OT0_, symObjAddr: 0xD1CC, symBinAddr: 0x100010714, symSize: 0x3C }
  - { offsetInCU: 0x18F03, offset: 0x18F03, size: 0x8, addend: 0x0, symName: __ZNSt3__14pairIPPNS0_ImmEES3_EC2B8ue170006IRS3_S6_LPv0EEEOT_OT0_, symObjAddr: 0xD208, symBinAddr: 0x100010750, symSize: 0x34 }
  - { offsetInCU: 0x18F61, offset: 0x18F61, size: 0x8, addend: 0x0, symName: __ZNSt3__114__split_bufferIPNS_4pairImmEERNS_9allocatorIS3_EEEC2EmmS6_, symObjAddr: 0xD23C, symBinAddr: 0x100010784, symSize: 0xD4 }
  - { offsetInCU: 0x18FD4, offset: 0x18FD4, size: 0x8, addend: 0x0, symName: __ZNSt3__117__compressed_pairIPPNS_4pairImmEERNS_9allocatorIS3_EEEC1B8ue170006IDnS7_EEOT_OT0_, symObjAddr: 0xD310, symBinAddr: 0x100010858, symSize: 0x3C }
  - { offsetInCU: 0x1902C, offset: 0x1902C, size: 0x8, addend: 0x0, symName: __ZNSt3__117__compressed_pairIPPNS_4pairImmEERNS_9allocatorIS3_EEEC2B8ue170006IDnS7_EEOT_OT0_, symObjAddr: 0xD38C, symBinAddr: 0x1000108D4, symSize: 0x48 }
  - { offsetInCU: 0x19084, offset: 0x19084, size: 0x8, addend: 0x0, symName: __ZNSt3__122__compressed_pair_elemIRNS_9allocatorIPNS_4pairImmEEEELi1ELb0EEC2B8ue170006IS6_vEEOT_, symObjAddr: 0xD3D4, symBinAddr: 0x10001091C, symSize: 0x20 }
  - { offsetInCU: 0x190C6, offset: 0x190C6, size: 0x8, addend: 0x0, symName: __ZNSt3__19allocatorIPNS_4pairImmEEE8allocateB8ue170006Em, symObjAddr: 0xD3F4, symBinAddr: 0x10001093C, symSize: 0x58 }
  - { offsetInCU: 0x19104, offset: 0x19104, size: 0x8, addend: 0x0, symName: __ZNSt3__116allocator_traitsINS_9allocatorIPNS_4pairImmEEEEE8max_sizeB8ue170006IS5_vEEmRKS5_, symObjAddr: 0xD44C, symBinAddr: 0x100010994, symSize: 0x24 }
  - { offsetInCU: 0x19132, offset: 0x19132, size: 0x8, addend: 0x0, symName: __ZNKSt3__19allocatorIPNS_4pairImmEEE8max_sizeB8ue170006Ev, symObjAddr: 0xD470, symBinAddr: 0x1000109B8, symSize: 0x14 }
  - { offsetInCU: 0x19158, offset: 0x19158, size: 0x8, addend: 0x0, symName: __ZNSt3__122__allocator_destructorINS_9allocatorINS_4pairImmEEEEEC2B8ue170006ERS4_m, symObjAddr: 0xD484, symBinAddr: 0x1000109CC, symSize: 0x2C }
  - { offsetInCU: 0x1919E, offset: 0x1919E, size: 0x8, addend: 0x0, symName: __ZNSt3__110unique_ptrIPNS_4pairImmEENS_22__allocator_destructorINS_9allocatorIS2_EEEEEC2B8ue170006ILb1EvEES3_NS_16__dependent_typeINS_27__unique_ptr_deleter_sfinaeIS7_EEXT_EE20__good_rval_ref_typeE, symObjAddr: 0xD4B0, symBinAddr: 0x1000109F8, symSize: 0x48 }
  - { offsetInCU: 0x191EF, offset: 0x191EF, size: 0x8, addend: 0x0, symName: __ZNSt3__117__compressed_pairIPNS_4pairImmEENS_22__allocator_destructorINS_9allocatorIS2_EEEEEC1B8ue170006IRS3_S7_EEOT_OT0_, symObjAddr: 0xD4F8, symBinAddr: 0x100010A40, symSize: 0x3C }
  - { offsetInCU: 0x19247, offset: 0x19247, size: 0x8, addend: 0x0, symName: __ZNSt3__117__compressed_pairIPNS_4pairImmEENS_22__allocator_destructorINS_9allocatorIS2_EEEEEC2B8ue170006IRS3_S7_EEOT_OT0_, symObjAddr: 0xD534, symBinAddr: 0x100010A7C, symSize: 0x48 }
  - { offsetInCU: 0x1929F, offset: 0x1929F, size: 0x8, addend: 0x0, symName: __ZNSt3__122__compressed_pair_elemIPNS_4pairImmEELi0ELb0EEC2B8ue170006IRS3_vEEOT_, symObjAddr: 0xD57C, symBinAddr: 0x100010AC4, symSize: 0x24 }
  - { offsetInCU: 0x192E1, offset: 0x192E1, size: 0x8, addend: 0x0, symName: __ZNSt3__122__compressed_pair_elemINS_22__allocator_destructorINS_9allocatorINS_4pairImmEEEEEELi1ELb0EEC2B8ue170006IS6_vEEOT_, symObjAddr: 0xD5A0, symBinAddr: 0x100010AE8, symSize: 0x24 }
  - { offsetInCU: 0x19323, offset: 0x19323, size: 0x8, addend: 0x0, symName: __ZNKSt3__117__compressed_pairIPNS_4pairImmEENS_22__allocator_destructorINS_9allocatorIS2_EEEEE5firstB8ue170006Ev, symObjAddr: 0xD5C4, symBinAddr: 0x100010B0C, symSize: 0x24 }
  - { offsetInCU: 0x19349, offset: 0x19349, size: 0x8, addend: 0x0, symName: __ZNKSt3__122__compressed_pair_elemIPNS_4pairImmEELi0ELb0EE5__getB8ue170006Ev, symObjAddr: 0xD5E8, symBinAddr: 0x100010B30, symSize: 0x14 }
  - { offsetInCU: 0x1936F, offset: 0x1936F, size: 0x8, addend: 0x0, symName: __ZNSt3__117__compressed_pairIPNS_4pairImmEENS_22__allocator_destructorINS_9allocatorIS2_EEEEE5firstB8ue170006Ev, symObjAddr: 0xD5FC, symBinAddr: 0x100010B44, symSize: 0x24 }
  - { offsetInCU: 0x19395, offset: 0x19395, size: 0x8, addend: 0x0, symName: __ZNSt3__122__compressed_pair_elemIPNS_4pairImmEELi0ELb0EE5__getB8ue170006Ev, symObjAddr: 0xD620, symBinAddr: 0x100010B68, symSize: 0x14 }
  - { offsetInCU: 0x193BB, offset: 0x193BB, size: 0x8, addend: 0x0, symName: __ZNSt3__117__compressed_pairIPPNS_4pairImmEENS_9allocatorIS3_EEE5firstB8ue170006Ev, symObjAddr: 0xD634, symBinAddr: 0x100010B7C, symSize: 0x24 }
  - { offsetInCU: 0x193E1, offset: 0x193E1, size: 0x8, addend: 0x0, symName: __ZNSt3__122__compressed_pair_elemIPPNS_4pairImmEELi0ELb0EE5__getB8ue170006Ev, symObjAddr: 0xD658, symBinAddr: 0x100010BA0, symSize: 0x14 }
  - { offsetInCU: 0x19407, offset: 0x19407, size: 0x8, addend: 0x0, symName: __ZNSt3__117__compressed_pairIPPNS_4pairImmEERNS_9allocatorIS3_EEE5firstB8ue170006Ev, symObjAddr: 0xD66C, symBinAddr: 0x100010BB4, symSize: 0x24 }
  - { offsetInCU: 0x1942D, offset: 0x1942D, size: 0x8, addend: 0x0, symName: __ZNSt3__110unique_ptrIPNS_4pairImmEENS_22__allocator_destructorINS_9allocatorIS2_EEEEED2B8ue170006Ev, symObjAddr: 0xD690, symBinAddr: 0x100010BD8, symSize: 0x30 }
  - { offsetInCU: 0x19457, offset: 0x19457, size: 0x8, addend: 0x0, symName: __ZNSt3__110unique_ptrIPNS_4pairImmEENS_22__allocator_destructorINS_9allocatorIS2_EEEEE5resetB8ue170006ES3_, symObjAddr: 0xD6C0, symBinAddr: 0x100010C08, symSize: 0x78 }
  - { offsetInCU: 0x1949B, offset: 0x1949B, size: 0x8, addend: 0x0, symName: __ZNSt3__117__compressed_pairIPNS_4pairImmEENS_22__allocator_destructorINS_9allocatorIS2_EEEEE6secondB8ue170006Ev, symObjAddr: 0xD738, symBinAddr: 0x100010C80, symSize: 0x28 }
  - { offsetInCU: 0x194C1, offset: 0x194C1, size: 0x8, addend: 0x0, symName: __ZNSt3__122__allocator_destructorINS_9allocatorINS_4pairImmEEEEEclB8ue170006EPS3_, symObjAddr: 0xD760, symBinAddr: 0x100010CA8, symSize: 0x34 }
  - { offsetInCU: 0x194F5, offset: 0x194F5, size: 0x8, addend: 0x0, symName: __ZNSt3__122__compressed_pair_elemINS_22__allocator_destructorINS_9allocatorINS_4pairImmEEEEEELi1ELb0EE5__getB8ue170006Ev, symObjAddr: 0xD794, symBinAddr: 0x100010CDC, symSize: 0x14 }
  - { offsetInCU: 0x1951B, offset: 0x1951B, size: 0x8, addend: 0x0, symName: __ZNSt3__114__split_bufferIPNS_4pairImmEERNS_9allocatorIS3_EEED2Ev, symObjAddr: 0xD7A8, symBinAddr: 0x100010CF0, symSize: 0x8C }
  - { offsetInCU: 0x19547, offset: 0x19547, size: 0x8, addend: 0x0, symName: __ZNSt3__114__split_bufferIPNS_4pairImmEERNS_9allocatorIS3_EEE5clearB8ue170006Ev, symObjAddr: 0xD834, symBinAddr: 0x100010D7C, symSize: 0x28 }
  - { offsetInCU: 0x1956D, offset: 0x1956D, size: 0x8, addend: 0x0, symName: __ZNKSt3__114__split_bufferIPNS_4pairImmEERNS_9allocatorIS3_EEE8capacityB8ue170006Ev, symObjAddr: 0xD85C, symBinAddr: 0x100010DA4, symSize: 0x40 }
  - { offsetInCU: 0x19593, offset: 0x19593, size: 0x8, addend: 0x0, symName: __ZNSt3__114__split_bufferIPNS_4pairImmEERNS_9allocatorIS3_EEE17__destruct_at_endB8ue170006EPS3_, symObjAddr: 0xD89C, symBinAddr: 0x100010DE4, symSize: 0x2C }
  - { offsetInCU: 0x195C7, offset: 0x195C7, size: 0x8, addend: 0x0, symName: __ZNSt3__114__split_bufferIPNS_4pairImmEERNS_9allocatorIS3_EEE17__destruct_at_endB8ue170006EPS3_NS_17integral_constantIbLb0EEE, symObjAddr: 0xD8C8, symBinAddr: 0x100010E10, symSize: 0x80 }
  - { offsetInCU: 0x19607, offset: 0x19607, size: 0x8, addend: 0x0, symName: __ZNKSt3__114__split_bufferIPNS_4pairImmEERNS_9allocatorIS3_EEE9__end_capB8ue170006Ev, symObjAddr: 0xD948, symBinAddr: 0x100010E90, symSize: 0x28 }
  - { offsetInCU: 0x1962D, offset: 0x1962D, size: 0x8, addend: 0x0, symName: __ZNKSt3__117__compressed_pairIPPNS_4pairImmEERNS_9allocatorIS3_EEE5firstB8ue170006Ev, symObjAddr: 0xD970, symBinAddr: 0x100010EB8, symSize: 0x24 }
  - { offsetInCU: 0x19653, offset: 0x19653, size: 0x8, addend: 0x0, symName: __ZNSt3__19allocatorINS_4pairImmEEE9constructB8ue170006IS2_JRKS2_EEEvPT_DpOT0_, symObjAddr: 0xD994, symBinAddr: 0x100010EDC, symSize: 0x28 }
  - { offsetInCU: 0x196A9, offset: 0x196A9, size: 0x8, addend: 0x0, symName: __ZNKSt3__15dequeINS_4pairImmEENS_9allocatorIS2_EEE22__annotate_shrink_backB8ue170006Emm, symObjAddr: 0xD9BC, symBinAddr: 0x100010F04, symSize: 0x60 }
  - { offsetInCU: 0x196ED, offset: 0x196ED, size: 0x8, addend: 0x0, symName: __ZNSt3__15dequeINS_4pairImmEENS_9allocatorIS2_EEE25__maybe_remove_back_spareB8ue170006Eb, symObjAddr: 0xDA1C, symBinAddr: 0x100010F64, symSize: 0xE8 }
  - { offsetInCU: 0x19722, offset: 0x19722, size: 0x8, addend: 0x0, symName: __ZNKSt3__15dequeINS_4pairImmEENS_9allocatorIS2_EEE19__back_spare_blocksB8ue170006Ev, symObjAddr: 0xDB04, symBinAddr: 0x10001104C, symSize: 0x2C }
  - { offsetInCU: 0x19748, offset: 0x19748, size: 0x8, addend: 0x0, symName: __ZNSt3__114__split_bufferIPNS_4pairImmEENS_9allocatorIS3_EEE4backB8ue170006Ev, symObjAddr: 0xDB30, symBinAddr: 0x100011078, symSize: 0x1C }
  - { offsetInCU: 0x1976E, offset: 0x1976E, size: 0x8, addend: 0x0, symName: __ZNSt3__114__split_bufferIPNS_4pairImmEENS_9allocatorIS3_EEE8pop_backB8ue170006Ev, symObjAddr: 0xDB4C, symBinAddr: 0x100011094, symSize: 0x2C }
  - { offsetInCU: 0x19794, offset: 0x19794, size: 0x8, addend: 0x0, symName: __ZNKSt3__15dequeINS_4pairImmEENS_9allocatorIS2_EEE23__annotate_shrink_frontB8ue170006Emm, symObjAddr: 0xDB78, symBinAddr: 0x1000110C0, symSize: 0x70 }
  - { offsetInCU: 0x197D8, offset: 0x197D8, size: 0x8, addend: 0x0, symName: __ZNSt3__15dequeINS_4pairImmEENS_9allocatorIS2_EEE26__maybe_remove_front_spareB8ue170006Eb, symObjAddr: 0xDBE8, symBinAddr: 0x100011130, symSize: 0xEC }
  - { offsetInCU: 0x1980D, offset: 0x1980D, size: 0x8, addend: 0x0, symName: __ZNKSt3__15dequeINS_4pairImmEENS_9allocatorIS2_EEE20__front_spare_blocksB8ue170006Ev, symObjAddr: 0xDCD4, symBinAddr: 0x10001121C, symSize: 0x2C }
  - { offsetInCU: 0x19833, offset: 0x19833, size: 0x8, addend: 0x0, symName: __ZNSt3__112basic_stringIcNS_11char_traitsIcEENS_9allocatorIcEEE15__make_iteratorB8ue170006EPc, symObjAddr: 0xDD00, symBinAddr: 0x100011248, symSize: 0x30 }
  - { offsetInCU: 0x19868, offset: 0x19868, size: 0x8, addend: 0x0, symName: __ZNSt3__111__wrap_iterIPcEC1B8ue170006ES1_, symObjAddr: 0xDD30, symBinAddr: 0x100011278, symSize: 0x34 }
  - { offsetInCU: 0x198A0, offset: 0x198A0, size: 0x8, addend: 0x0, symName: __ZNSt3__111__wrap_iterIPcEC2B8ue170006ES1_, symObjAddr: 0xDD64, symBinAddr: 0x1000112AC, symSize: 0x20 }
  - { offsetInCU: 0x198D8, offset: 0x198D8, size: 0x8, addend: 0x0, symName: __ZNSt3__116allocator_traitsINS_9allocatorINS_4pairImmEEEEE9constructB8ue170006IS3_JS3_EvEEvRS4_PT_DpOT0_, symObjAddr: 0xDD84, symBinAddr: 0x1000112CC, symSize: 0x34 }
  - { offsetInCU: 0x1992F, offset: 0x1992F, size: 0x8, addend: 0x0, symName: __ZNSt3__19allocatorINS_4pairImmEEE9constructB8ue170006IS2_JS2_EEEvPT_DpOT0_, symObjAddr: 0xDDB8, symBinAddr: 0x100011300, symSize: 0x28 }
  - { offsetInCU: 0x19985, offset: 0x19985, size: 0x8, addend: 0x0, symName: __ZNSt3__16vectorINS_4pairImmEENS_9allocatorIS2_EEEC2B8ue170006Ev, symObjAddr: 0xDDE0, symBinAddr: 0x100011328, symSize: 0x4C }
  - { offsetInCU: 0x199AF, offset: 0x199AF, size: 0x8, addend: 0x0, symName: __ZNSt3__117__compressed_pairIPNS_4pairImmEENS_9allocatorIS2_EEEC1B8ue170006IDnNS_18__default_init_tagEEEOT_OT0_, symObjAddr: 0xDE2C, symBinAddr: 0x100011374, symSize: 0x3C }
  - { offsetInCU: 0x19A07, offset: 0x19A07, size: 0x8, addend: 0x0, symName: __ZNSt3__117__compressed_pairIPNS_4pairImmEENS_9allocatorIS2_EEEC2B8ue170006IDnNS_18__default_init_tagEEEOT_OT0_, symObjAddr: 0xDE68, symBinAddr: 0x1000113B0, symSize: 0x40 }
  - { offsetInCU: 0x19A5F, offset: 0x19A5F, size: 0x8, addend: 0x0, symName: __ZNSt3__122__compressed_pair_elemIPNS_4pairImmEELi0ELb0EEC2B8ue170006IDnvEEOT_, symObjAddr: 0xDEA8, symBinAddr: 0x1000113F0, symSize: 0x1C }
  - { offsetInCU: 0x19AA1, offset: 0x19AA1, size: 0x8, addend: 0x0, symName: __ZNSt3__16vectorINS_4pairImmEENS_9allocatorIS2_EEED2B8ue170006Ev, symObjAddr: 0xDEC4, symBinAddr: 0x10001140C, symSize: 0x44 }
  - { offsetInCU: 0x19ACB, offset: 0x19ACB, size: 0x8, addend: 0x0, symName: __ZNSt3__16vectorINS_4pairImmEENS_9allocatorIS2_EEE16__destroy_vectorC1B8ue170006ERS5_, symObjAddr: 0xDF08, symBinAddr: 0x100011450, symSize: 0x34 }
  - { offsetInCU: 0x19B04, offset: 0x19B04, size: 0x8, addend: 0x0, symName: __ZNSt3__16vectorINS_4pairImmEENS_9allocatorIS2_EEE16__destroy_vectorclB8ue170006Ev, symObjAddr: 0xDF3C, symBinAddr: 0x100011484, symSize: 0x90 }
  - { offsetInCU: 0x19B2A, offset: 0x19B2A, size: 0x8, addend: 0x0, symName: __ZNSt3__16vectorINS_4pairImmEENS_9allocatorIS2_EEE16__destroy_vectorC2B8ue170006ERS5_, symObjAddr: 0xDFCC, symBinAddr: 0x100011514, symSize: 0x20 }
  - { offsetInCU: 0x19B63, offset: 0x19B63, size: 0x8, addend: 0x0, symName: __ZNSt3__16vectorINS_4pairImmEENS_9allocatorIS2_EEE7__clearB8ue170006Ev, symObjAddr: 0xDFEC, symBinAddr: 0x100011534, symSize: 0x28 }
  - { offsetInCU: 0x19B89, offset: 0x19B89, size: 0x8, addend: 0x0, symName: __ZNKSt3__16vectorINS_4pairImmEENS_9allocatorIS2_EEE17__annotate_deleteB8ue170006Ev, symObjAddr: 0xE014, symBinAddr: 0x10001155C, symSize: 0xB8 }
  - { offsetInCU: 0x19BAF, offset: 0x19BAF, size: 0x8, addend: 0x0, symName: __ZNSt3__16vectorINS_4pairImmEENS_9allocatorIS2_EEE7__allocB8ue170006Ev, symObjAddr: 0xE0CC, symBinAddr: 0x100011614, symSize: 0x28 }
  - { offsetInCU: 0x19BD5, offset: 0x19BD5, size: 0x8, addend: 0x0, symName: __ZNKSt3__16vectorINS_4pairImmEENS_9allocatorIS2_EEE8capacityB8ue170006Ev, symObjAddr: 0xE0F4, symBinAddr: 0x10001163C, symSize: 0x40 }
  - { offsetInCU: 0x19BFB, offset: 0x19BFB, size: 0x8, addend: 0x0, symName: __ZNSt3__16vectorINS_4pairImmEENS_9allocatorIS2_EEE22__base_destruct_at_endB8ue170006EPS2_, symObjAddr: 0xE134, symBinAddr: 0x10001167C, symSize: 0x8C }
  - { offsetInCU: 0x19C3F, offset: 0x19C3F, size: 0x8, addend: 0x0, symName: __ZNKSt3__16vectorINS_4pairImmEENS_9allocatorIS2_EEE31__annotate_contiguous_containerB8ue170006EPKvS7_S7_S7_, symObjAddr: 0xE1C0, symBinAddr: 0x100011708, symSize: 0x20 }
  - { offsetInCU: 0x19C91, offset: 0x19C91, size: 0x8, addend: 0x0, symName: __ZNKSt3__16vectorINS_4pairImmEENS_9allocatorIS2_EEE4dataB8ue170006Ev, symObjAddr: 0xE1E0, symBinAddr: 0x100011728, symSize: 0x28 }
  - { offsetInCU: 0x19CB7, offset: 0x19CB7, size: 0x8, addend: 0x0, symName: __ZNSt3__117__compressed_pairIPNS_4pairImmEENS_9allocatorIS2_EEE6secondB8ue170006Ev, symObjAddr: 0xE208, symBinAddr: 0x100011750, symSize: 0x24 }
  - { offsetInCU: 0x19CDD, offset: 0x19CDD, size: 0x8, addend: 0x0, symName: __ZNKSt3__16vectorINS_4pairImmEENS_9allocatorIS2_EEE9__end_capB8ue170006Ev, symObjAddr: 0xE22C, symBinAddr: 0x100011774, symSize: 0x28 }
  - { offsetInCU: 0x19D03, offset: 0x19D03, size: 0x8, addend: 0x0, symName: __ZNKSt3__117__compressed_pairIPNS_4pairImmEENS_9allocatorIS2_EEE5firstB8ue170006Ev, symObjAddr: 0xE254, symBinAddr: 0x10001179C, symSize: 0x24 }
  - { offsetInCU: 0x19D29, offset: 0x19D29, size: 0x8, addend: 0x0, symName: __ZNSt3__16vectorINS_4pairImmEENS_9allocatorIS2_EEE9__end_capB8ue170006Ev, symObjAddr: 0xE278, symBinAddr: 0x1000117C0, symSize: 0x28 }
  - { offsetInCU: 0x19D4F, offset: 0x19D4F, size: 0x8, addend: 0x0, symName: __ZNSt3__16vectorINS_4pairImmEENS_9allocatorIS2_EEE22__construct_one_at_endB8ue170006IJRKS2_EEEvDpOT_, symObjAddr: 0xE2A0, symBinAddr: 0x1000117E8, symSize: 0x90 }
  - { offsetInCU: 0x19D9E, offset: 0x19D9E, size: 0x8, addend: 0x0, symName: __ZNSt3__16vectorINS_4pairImmEENS_9allocatorIS2_EEE21__push_back_slow_pathIRKS2_EEvOT_, symObjAddr: 0xE330, symBinAddr: 0x100011878, symSize: 0xD8 }
  - { offsetInCU: 0x19DFC, offset: 0x19DFC, size: 0x8, addend: 0x0, symName: __ZNSt3__117__compressed_pairIPNS_4pairImmEENS_9allocatorIS2_EEE5firstB8ue170006Ev, symObjAddr: 0xE408, symBinAddr: 0x100011950, symSize: 0x24 }
  - { offsetInCU: 0x19E3B, offset: 0x19E3B, size: 0x8, addend: 0x0, symName: __ZNSt3__16vectorINS_4pairImmEENS_9allocatorIS2_EEE21_ConstructTransactionC1B8ue170006ERS5_m, symObjAddr: 0xE42C, symBinAddr: 0x100011974, symSize: 0x3C }
  - { offsetInCU: 0x19E83, offset: 0x19E83, size: 0x8, addend: 0x0, symName: __ZNSt3__16vectorINS_4pairImmEENS_9allocatorIS2_EEE21_ConstructTransactionD1B8ue170006Ev, symObjAddr: 0xE468, symBinAddr: 0x1000119B0, symSize: 0x2C }
  - { offsetInCU: 0x19EAD, offset: 0x19EAD, size: 0x8, addend: 0x0, symName: __ZNSt3__16vectorINS_4pairImmEENS_9allocatorIS2_EEE21_ConstructTransactionC2B8ue170006ERS5_m, symObjAddr: 0xE494, symBinAddr: 0x1000119DC, symSize: 0x44 }
  - { offsetInCU: 0x19EF5, offset: 0x19EF5, size: 0x8, addend: 0x0, symName: __ZNSt3__16vectorINS_4pairImmEENS_9allocatorIS2_EEE21_ConstructTransactionD2B8ue170006Ev, symObjAddr: 0xE4D8, symBinAddr: 0x100011A20, symSize: 0x20 }
  - { offsetInCU: 0x19F1F, offset: 0x19F1F, size: 0x8, addend: 0x0, symName: __ZNKSt3__16vectorINS_4pairImmEENS_9allocatorIS2_EEE11__recommendB8ue170006Em, symObjAddr: 0xE4F8, symBinAddr: 0x100011A40, symSize: 0xB4 }
  - { offsetInCU: 0x19F74, offset: 0x19F74, size: 0x8, addend: 0x0, symName: __ZNSt3__114__split_bufferINS_4pairImmEERNS_9allocatorIS2_EEEC1EmmS5_, symObjAddr: 0xE5AC, symBinAddr: 0x100011AF4, symSize: 0x44 }
  - { offsetInCU: 0x19FCA, offset: 0x19FCA, size: 0x8, addend: 0x0, symName: __ZNSt3__114__split_bufferINS_4pairImmEERNS_9allocatorIS2_EEED1Ev, symObjAddr: 0xE700, symBinAddr: 0x100011C48, symSize: 0x2C }
  - { offsetInCU: 0x19FF6, offset: 0x19FF6, size: 0x8, addend: 0x0, symName: __ZNKSt3__16vectorINS_4pairImmEENS_9allocatorIS2_EEE8max_sizeEv, symObjAddr: 0xE72C, symBinAddr: 0x100011C74, symSize: 0x60 }
  - { offsetInCU: 0x1A01E, offset: 0x1A01E, size: 0x8, addend: 0x0, symName: __ZNKSt3__16vectorINS_4pairImmEENS_9allocatorIS2_EEE20__throw_length_errorB8ue170006Ev, symObjAddr: 0xE78C, symBinAddr: 0x100011CD4, symSize: 0x1C }
  - { offsetInCU: 0x1A044, offset: 0x1A044, size: 0x8, addend: 0x0, symName: __ZNKSt3__16vectorINS_4pairImmEENS_9allocatorIS2_EEE7__allocB8ue170006Ev, symObjAddr: 0xE7A8, symBinAddr: 0x100011CF0, symSize: 0x28 }
  - { offsetInCU: 0x1A06A, offset: 0x1A06A, size: 0x8, addend: 0x0, symName: __ZNKSt3__117__compressed_pairIPNS_4pairImmEENS_9allocatorIS2_EEE6secondB8ue170006Ev, symObjAddr: 0xE7D0, symBinAddr: 0x100011D18, symSize: 0x24 }
  - { offsetInCU: 0x1A090, offset: 0x1A090, size: 0x8, addend: 0x0, symName: __ZNKSt3__122__compressed_pair_elemINS_9allocatorINS_4pairImmEEEELi1ELb1EE5__getB8ue170006Ev, symObjAddr: 0xE7F4, symBinAddr: 0x100011D3C, symSize: 0x14 }
  - { offsetInCU: 0x1A0B6, offset: 0x1A0B6, size: 0x8, addend: 0x0, symName: __ZNSt3__114__split_bufferINS_4pairImmEERNS_9allocatorIS2_EEEC2EmmS5_, symObjAddr: 0xE808, symBinAddr: 0x100011D50, symSize: 0xD4 }
  - { offsetInCU: 0x1A129, offset: 0x1A129, size: 0x8, addend: 0x0, symName: __ZNSt3__117__compressed_pairIPNS_4pairImmEERNS_9allocatorIS2_EEEC1B8ue170006IDnS6_EEOT_OT0_, symObjAddr: 0xE8DC, symBinAddr: 0x100011E24, symSize: 0x3C }
  - { offsetInCU: 0x1A181, offset: 0x1A181, size: 0x8, addend: 0x0, symName: __ZNSt3__114__split_bufferINS_4pairImmEERNS_9allocatorIS2_EEE7__allocB8ue170006Ev, symObjAddr: 0xE958, symBinAddr: 0x100011EA0, symSize: 0x28 }
  - { offsetInCU: 0x1A1A7, offset: 0x1A1A7, size: 0x8, addend: 0x0, symName: __ZNSt3__114__split_bufferINS_4pairImmEERNS_9allocatorIS2_EEE9__end_capB8ue170006Ev, symObjAddr: 0xE980, symBinAddr: 0x100011EC8, symSize: 0x28 }
  - { offsetInCU: 0x1A1CD, offset: 0x1A1CD, size: 0x8, addend: 0x0, symName: __ZNSt3__117__compressed_pairIPNS_4pairImmEERNS_9allocatorIS2_EEEC2B8ue170006IDnS6_EEOT_OT0_, symObjAddr: 0xE9A8, symBinAddr: 0x100011EF0, symSize: 0x48 }
  - { offsetInCU: 0x1A225, offset: 0x1A225, size: 0x8, addend: 0x0, symName: __ZNSt3__122__compressed_pair_elemIRNS_9allocatorINS_4pairImmEEEELi1ELb0EEC2B8ue170006IS5_vEEOT_, symObjAddr: 0xE9F0, symBinAddr: 0x100011F38, symSize: 0x20 }
  - { offsetInCU: 0x1A267, offset: 0x1A267, size: 0x8, addend: 0x0, symName: __ZNSt3__117__compressed_pairIPNS_4pairImmEERNS_9allocatorIS2_EEE6secondB8ue170006Ev, symObjAddr: 0xEA10, symBinAddr: 0x100011F58, symSize: 0x28 }
  - { offsetInCU: 0x1A28D, offset: 0x1A28D, size: 0x8, addend: 0x0, symName: __ZNSt3__122__compressed_pair_elemIRNS_9allocatorINS_4pairImmEEEELi1ELb0EE5__getB8ue170006Ev, symObjAddr: 0xEA38, symBinAddr: 0x100011F80, symSize: 0x18 }
  - { offsetInCU: 0x1A2B3, offset: 0x1A2B3, size: 0x8, addend: 0x0, symName: __ZNSt3__117__compressed_pairIPNS_4pairImmEERNS_9allocatorIS2_EEE5firstB8ue170006Ev, symObjAddr: 0xEA50, symBinAddr: 0x100011F98, symSize: 0x24 }
  - { offsetInCU: 0x1A2D9, offset: 0x1A2D9, size: 0x8, addend: 0x0, symName: __ZNSt3__116reverse_iteratorIPNS_4pairImmEEEC1B8ue170006ES3_, symObjAddr: 0xEBA0, symBinAddr: 0x1000120E8, symSize: 0x34 }
  - { offsetInCU: 0x1A311, offset: 0x1A311, size: 0x8, addend: 0x0, symName: __ZNKSt3__116reverse_iteratorIPNS_4pairImmEEE4baseB8ue170006Ev, symObjAddr: 0xEBD4, symBinAddr: 0x10001211C, symSize: 0x18 }
  - { offsetInCU: 0x1A337, offset: 0x1A337, size: 0x8, addend: 0x0, symName: __ZNKSt3__16vectorINS_4pairImmEENS_9allocatorIS2_EEE14__annotate_newB8ue170006Em, symObjAddr: 0xEC28, symBinAddr: 0x100012170, symSize: 0xAC }
  - { offsetInCU: 0x1A36C, offset: 0x1A36C, size: 0x8, addend: 0x0, symName: __ZNSt3__129_AllocatorDestroyRangeReverseINS_9allocatorINS_4pairImmEEEENS_16reverse_iteratorIPS3_EEEC1B8ue170006ERS4_RS7_SA_, symObjAddr: 0xED20, symBinAddr: 0x100012268, symSize: 0x44 }
  - { offsetInCU: 0x1A3C3, offset: 0x1A3C3, size: 0x8, addend: 0x0, symName: __ZNKSt3__116reverse_iteratorIPNS_4pairImmEEEdeB8ue170006Ev, symObjAddr: 0xEDD0, symBinAddr: 0x100012318, symSize: 0x28 }
  - { offsetInCU: 0x1A3F7, offset: 0x1A3F7, size: 0x8, addend: 0x0, symName: __ZNSt3__116reverse_iteratorIPNS_4pairImmEEEppB8ue170006Ev, symObjAddr: 0xEDF8, symBinAddr: 0x100012340, symSize: 0x20 }
  - { offsetInCU: 0x1A41D, offset: 0x1A41D, size: 0x8, addend: 0x0, symName: __ZNSt3__128__exception_guard_exceptionsINS_29_AllocatorDestroyRangeReverseINS_9allocatorINS_4pairImmEEEENS_16reverse_iteratorIPS4_EEEEE10__completeB8ue170006Ev, symObjAddr: 0xEE18, symBinAddr: 0x100012360, symSize: 0x1C }
  - { offsetInCU: 0x1A443, offset: 0x1A443, size: 0x8, addend: 0x0, symName: __ZNSt3__128__exception_guard_exceptionsINS_29_AllocatorDestroyRangeReverseINS_9allocatorINS_4pairImmEEEENS_16reverse_iteratorIPS4_EEEEED1B8ue170006Ev, symObjAddr: 0xEE34, symBinAddr: 0x10001237C, symSize: 0x2C }
  - { offsetInCU: 0x1A46D, offset: 0x1A46D, size: 0x8, addend: 0x0, symName: __ZNSt3__128__exception_guard_exceptionsINS_29_AllocatorDestroyRangeReverseINS_9allocatorINS_4pairImmEEEENS_16reverse_iteratorIPS4_EEEEEC1B8ue170006ES9_, symObjAddr: 0xEE60, symBinAddr: 0x1000123A8, symSize: 0x34 }
  - { offsetInCU: 0x1A4A6, offset: 0x1A4A6, size: 0x8, addend: 0x0, symName: __ZNSt3__128__exception_guard_exceptionsINS_29_AllocatorDestroyRangeReverseINS_9allocatorINS_4pairImmEEEENS_16reverse_iteratorIPS4_EEEEEC2B8ue170006ES9_, symObjAddr: 0xEE94, symBinAddr: 0x1000123DC, symSize: 0x30 }
  - { offsetInCU: 0x1A4DF, offset: 0x1A4DF, size: 0x8, addend: 0x0, symName: __ZNSt3__129_AllocatorDestroyRangeReverseINS_9allocatorINS_4pairImmEEEENS_16reverse_iteratorIPS3_EEEC2B8ue170006ERS4_RS7_SA_, symObjAddr: 0xEEC4, symBinAddr: 0x10001240C, symSize: 0x38 }
  - { offsetInCU: 0x1A53B, offset: 0x1A53B, size: 0x8, addend: 0x0, symName: __ZNSt3__119__to_address_helperINS_16reverse_iteratorIPNS_4pairImmEEEEvE6__callB8ue170006ERKS5_, symObjAddr: 0xEEFC, symBinAddr: 0x100012444, symSize: 0x38 }
  - { offsetInCU: 0x1A55E, offset: 0x1A55E, size: 0x8, addend: 0x0, symName: __ZNKSt3__116reverse_iteratorIPNS_4pairImmEEEptB8ue170006Ev, symObjAddr: 0xEF34, symBinAddr: 0x10001247C, symSize: 0x24 }
  - { offsetInCU: 0x1A584, offset: 0x1A584, size: 0x8, addend: 0x0, symName: __ZNSt3__128__exception_guard_exceptionsINS_29_AllocatorDestroyRangeReverseINS_9allocatorINS_4pairImmEEEENS_16reverse_iteratorIPS4_EEEEED2B8ue170006Ev, symObjAddr: 0xEF58, symBinAddr: 0x1000124A0, symSize: 0x50 }
  - { offsetInCU: 0x1A5AE, offset: 0x1A5AE, size: 0x8, addend: 0x0, symName: __ZNKSt3__129_AllocatorDestroyRangeReverseINS_9allocatorINS_4pairImmEEEENS_16reverse_iteratorIPS3_EEEclB8ue170006Ev, symObjAddr: 0xEFA8, symBinAddr: 0x1000124F0, symSize: 0xB4 }
  - { offsetInCU: 0x1A5D5, offset: 0x1A5D5, size: 0x8, addend: 0x0, symName: __ZNSt3__116reverse_iteratorINS0_IPNS_4pairImmEEEEEC1B8ue170006ES4_, symObjAddr: 0xF0CC, symBinAddr: 0x100012614, symSize: 0x3C }
  - { offsetInCU: 0x1A60D, offset: 0x1A60D, size: 0x8, addend: 0x0, symName: __ZNSt3__116reverse_iteratorINS0_IPNS_4pairImmEEEEEppB8ue170006Ev, symObjAddr: 0xF18C, symBinAddr: 0x1000126D4, symSize: 0x30 }
  - { offsetInCU: 0x1A633, offset: 0x1A633, size: 0x8, addend: 0x0, symName: __ZNKSt3__116reverse_iteratorINS0_IPNS_4pairImmEEEEE4baseB8ue170006Ev, symObjAddr: 0xF1BC, symBinAddr: 0x100012704, symSize: 0x24 }
  - { offsetInCU: 0x1A65E, offset: 0x1A65E, size: 0x8, addend: 0x0, symName: __ZNSt3__119__to_address_helperINS_16reverse_iteratorINS1_IPNS_4pairImmEEEEEEvE6__callB8ue170006ERKS6_, symObjAddr: 0xF1E0, symBinAddr: 0x100012728, symSize: 0x38 }
  - { offsetInCU: 0x1A681, offset: 0x1A681, size: 0x8, addend: 0x0, symName: __ZNKSt3__116reverse_iteratorINS0_IPNS_4pairImmEEEEEptB8ue170006Ev, symObjAddr: 0xF218, symBinAddr: 0x100012760, symSize: 0x24 }
  - { offsetInCU: 0x1A6A7, offset: 0x1A6A7, size: 0x8, addend: 0x0, symName: __ZNKSt3__116reverse_iteratorINS0_IPNS_4pairImmEEEEEdeB8ue170006Ev, symObjAddr: 0xF23C, symBinAddr: 0x100012784, symSize: 0x34 }
  - { offsetInCU: 0x1A6DB, offset: 0x1A6DB, size: 0x8, addend: 0x0, symName: __ZNSt3__116reverse_iteratorIPNS_4pairImmEEEmmB8ue170006Ev, symObjAddr: 0xF270, symBinAddr: 0x1000127B8, symSize: 0x20 }
  - { offsetInCU: 0x1A701, offset: 0x1A701, size: 0x8, addend: 0x0, symName: __ZNSt3__116reverse_iteratorINS0_IPNS_4pairImmEEEEEC2B8ue170006ES4_, symObjAddr: 0xF290, symBinAddr: 0x1000127D8, symSize: 0x2C }
  - { offsetInCU: 0x1A739, offset: 0x1A739, size: 0x8, addend: 0x0, symName: __ZNSt3__116reverse_iteratorIPNS_4pairImmEEEC2B8ue170006ES3_, symObjAddr: 0xF2BC, symBinAddr: 0x100012804, symSize: 0x28 }
  - { offsetInCU: 0x1A771, offset: 0x1A771, size: 0x8, addend: 0x0, symName: __ZNSt3__114__split_bufferINS_4pairImmEERNS_9allocatorIS2_EEED2Ev, symObjAddr: 0xF2E4, symBinAddr: 0x10001282C, symSize: 0x8C }
  - { offsetInCU: 0x1A79D, offset: 0x1A79D, size: 0x8, addend: 0x0, symName: __ZNSt3__114__split_bufferINS_4pairImmEERNS_9allocatorIS2_EEE5clearB8ue170006Ev, symObjAddr: 0xF370, symBinAddr: 0x1000128B8, symSize: 0x28 }
  - { offsetInCU: 0x1A7C3, offset: 0x1A7C3, size: 0x8, addend: 0x0, symName: __ZNKSt3__114__split_bufferINS_4pairImmEERNS_9allocatorIS2_EEE8capacityB8ue170006Ev, symObjAddr: 0xF398, symBinAddr: 0x1000128E0, symSize: 0x40 }
  - { offsetInCU: 0x1A7E9, offset: 0x1A7E9, size: 0x8, addend: 0x0, symName: __ZNSt3__114__split_bufferINS_4pairImmEERNS_9allocatorIS2_EEE17__destruct_at_endB8ue170006EPS2_, symObjAddr: 0xF3D8, symBinAddr: 0x100012920, symSize: 0x2C }
  - { offsetInCU: 0x1A81D, offset: 0x1A81D, size: 0x8, addend: 0x0, symName: __ZNSt3__114__split_bufferINS_4pairImmEERNS_9allocatorIS2_EEE17__destruct_at_endB8ue170006EPS2_NS_17integral_constantIbLb0EEE, symObjAddr: 0xF404, symBinAddr: 0x10001294C, symSize: 0x80 }
  - { offsetInCU: 0x1A85D, offset: 0x1A85D, size: 0x8, addend: 0x0, symName: __ZNKSt3__114__split_bufferINS_4pairImmEERNS_9allocatorIS2_EEE9__end_capB8ue170006Ev, symObjAddr: 0xF484, symBinAddr: 0x1000129CC, symSize: 0x28 }
  - { offsetInCU: 0x1A883, offset: 0x1A883, size: 0x8, addend: 0x0, symName: __ZNKSt3__117__compressed_pairIPNS_4pairImmEERNS_9allocatorIS2_EEE5firstB8ue170006Ev, symObjAddr: 0xF4AC, symBinAddr: 0x1000129F4, symSize: 0x24 }
...
